
code.elf:     file format elf32-avr


Disassembly of section .text:

00000000 <__vectors>:
   0:	0c 94 24 01 	jmp	0x248	; 0x248 <__ctors_end>
   4:	0c 94 43 01 	jmp	0x286	; 0x286 <__vector_1>
   8:	0c 94 68 01 	jmp	0x2d0	; 0x2d0 <__vector_2>
   c:	0c 94 41 01 	jmp	0x282	; 0x282 <__bad_interrupt>
  10:	0c 94 41 01 	jmp	0x282	; 0x282 <__bad_interrupt>
  14:	0c 94 41 01 	jmp	0x282	; 0x282 <__bad_interrupt>
  18:	0c 94 41 01 	jmp	0x282	; 0x282 <__bad_interrupt>
  1c:	0c 94 41 01 	jmp	0x282	; 0x282 <__bad_interrupt>
  20:	0c 94 41 01 	jmp	0x282	; 0x282 <__bad_interrupt>
  24:	0c 94 41 01 	jmp	0x282	; 0x282 <__bad_interrupt>
  28:	0c 94 41 01 	jmp	0x282	; 0x282 <__bad_interrupt>
  2c:	0c 94 8d 01 	jmp	0x31a	; 0x31a <__vector_11>
  30:	0c 94 41 01 	jmp	0x282	; 0x282 <__bad_interrupt>
  34:	0c 94 41 01 	jmp	0x282	; 0x282 <__bad_interrupt>
  38:	0c 94 41 01 	jmp	0x282	; 0x282 <__bad_interrupt>
  3c:	0c 94 41 01 	jmp	0x282	; 0x282 <__bad_interrupt>
  40:	0c 94 41 01 	jmp	0x282	; 0x282 <__bad_interrupt>
  44:	0c 94 41 01 	jmp	0x282	; 0x282 <__bad_interrupt>
  48:	0c 94 41 01 	jmp	0x282	; 0x282 <__bad_interrupt>
  4c:	0c 94 41 01 	jmp	0x282	; 0x282 <__bad_interrupt>
  50:	0c 94 41 01 	jmp	0x282	; 0x282 <__bad_interrupt>
  54:	0c 94 41 01 	jmp	0x282	; 0x282 <__bad_interrupt>
  58:	0c 94 41 01 	jmp	0x282	; 0x282 <__bad_interrupt>
  5c:	0c 94 41 01 	jmp	0x282	; 0x282 <__bad_interrupt>
  60:	0c 94 41 01 	jmp	0x282	; 0x282 <__bad_interrupt>
  64:	0c 94 41 01 	jmp	0x282	; 0x282 <__bad_interrupt>

00000068 <CHARSET>:
  68:	00 00 00 00 00 00 00 5f 00 00 00 07 00 07 00 14     ......._........
  78:	7f 14 7f 14 24 2a 7f 2a 12 23 13 08 64 62 36 49     ....$*.*.#..db6I
  88:	55 22 50 00 05 03 00 00 00 1c 22 41 00 00 41 22     U"P......."A..A"
  98:	1c 00 14 08 3e 08 14 08 08 3e 08 08 00 50 30 00     ....>....>...P0.
  a8:	00 08 08 08 08 08 00 60 60 00 00 20 10 08 04 02     .......``.. ....
  b8:	3e 51 49 45 3e 00 42 7f 40 00 42 61 51 49 46 21     >QIE>.B.@.BaQIF!
  c8:	41 45 4b 31 18 14 12 7f 10 27 45 45 45 39 3c 4a     AEK1.....'EEE9<J
  d8:	49 49 30 01 71 09 05 03 36 49 49 49 36 06 49 49     II0.q...6III6.II
  e8:	29 1e 00 36 36 00 00 00 56 36 00 00 08 14 22 41     )..66...V6...."A
  f8:	00 14 14 14 14 14 00 41 22 14 08 02 01 51 09 06     .......A"....Q..
 108:	32 49 79 41 3e 7e 11 11 11 7e 7f 49 49 49 36 3e     2IyA>~...~.III6>
 118:	41 41 41 22 7f 41 41 22 1c 7f 49 49 49 41 7f 09     AAA".AA"..IIIA..
 128:	09 09 01 3e 41 49 49 7a 7f 08 08 08 7f 00 41 7f     ...>AIIz......A.
 138:	41 00 20 40 41 3f 01 7f 08 14 22 41 7f 40 40 40     A. @A?...."A.@@@
 148:	40 7f 02 0c 02 7f 7f 04 08 10 7f 3e 41 41 41 3e     @..........>AAA>
 158:	7f 09 09 09 06 3e 41 51 21 5e 7f 09 19 29 46 46     .....>AQ!^...)FF
 168:	49 49 49 31 01 01 7f 01 01 3f 40 40 40 3f 1f 20     III1.....?@@@?. 
 178:	40 20 1f 3f 40 38 40 3f 63 14 08 14 63 07 08 70     @ .?@8@?c...c..p
 188:	08 07 61 51 49 45 43 00 7f 41 41 00 02 04 08 10     ..aQIEC..AA.....
 198:	20 00 41 41 7f 00 04 02 01 02 04 40 40 40 40 40      .AA.......@@@@@
 1a8:	00 01 02 04 00 20 54 54 54 78 7f 48 44 44 38 38     ..... TTTx.HDD88
 1b8:	44 44 44 20 38 44 44 48 7f 38 54 54 54 18 08 7e     DDD 8DDH.8TTT..~
 1c8:	09 01 02 0c 52 52 52 3e 7f 08 04 04 78 00 44 7d     ....RRR>....x.D}
 1d8:	40 00 20 40 44 3d 00 7f 10 28 44 00 00 41 7f 40     @. @D=...(D..A.@
 1e8:	00 7c 04 18 04 78 7c 08 04 04 78 38 44 44 44 38     .|...x|...x8DDD8
 1f8:	7c 14 14 14 08 08 14 14 18 7c 7c 08 04 04 08 48     |........||....H
 208:	54 54 54 20 04 3f 44 40 20 3c 40 40 20 7c 1c 20     TTT .?D@ <@@ |. 
 218:	40 20 1c 3c 40 30 40 3c 44 28 10 28 44 0c 50 50     @ .<@0@<D(.(D.PP
 228:	50 3c 44 64 54 4c 44 00 08 36 41 00 00 00 7f 00     P<DdTLD..6A.....
 238:	00 00 41 36 08 00 10 08 08 10 08 00 00 00 00 00     ..A6............

00000248 <__ctors_end>:
 248:	11 24       	eor	r1, r1
 24a:	1f be       	out	0x3f, r1	; 63
 24c:	cf ef       	ldi	r28, 0xFF	; 255
 24e:	d8 e0       	ldi	r29, 0x08	; 8
 250:	de bf       	out	0x3e, r29	; 62
 252:	cd bf       	out	0x3d, r28	; 61

00000254 <__do_copy_data>:
 254:	11 e0       	ldi	r17, 0x01	; 1
 256:	a0 e0       	ldi	r26, 0x00	; 0
 258:	b1 e0       	ldi	r27, 0x01	; 1
 25a:	e6 e8       	ldi	r30, 0x86	; 134
 25c:	fe e0       	ldi	r31, 0x0E	; 14
 25e:	02 c0       	rjmp	.+4      	; 0x264 <.LVUS18>
 260:	05 90       	lpm	r0, Z+
 262:	0d 92       	st	X+, r0
 264:	ae 38       	cpi	r26, 0x8E	; 142
 266:	b1 07       	cpc	r27, r17
 268:	d9 f7       	brne	.-10     	; 0x260 <.LLST17+0x4>

0000026a <__do_clear_bss>:
 26a:	23 e0       	ldi	r18, 0x03	; 3
 26c:	ae e8       	ldi	r26, 0x8E	; 142
 26e:	b1 e0       	ldi	r27, 0x01	; 1
 270:	01 c0       	rjmp	.+2      	; 0x274 <.do_clear_bss_start>

00000272 <.do_clear_bss_loop>:
 272:	1d 92       	st	X+, r1

00000274 <.do_clear_bss_start>:
 274:	a0 3d       	cpi	r26, 0xD0	; 208
 276:	b2 07       	cpc	r27, r18
 278:	e1 f7       	brne	.-8      	; 0x272 <.do_clear_bss_loop>
 27a:	0e 94 91 03 	call	0x722	; 0x722 <main>
 27e:	0c 94 41 07 	jmp	0xe82	; 0xe82 <_exit>

00000282 <__bad_interrupt>:
 282:	0c 94 00 00 	jmp	0	; 0x0 <__vectors>

00000286 <__vector_1>:
 286:	1f 92       	push	r1
 288:	1f b6       	in	r1, 0x3f	; 63
 28a:	1f 92       	push	r1
 28c:	11 24       	eor	r1, r1
 28e:	2f 93       	push	r18
 290:	3f 93       	push	r19
 292:	8f 93       	push	r24
 294:	9f 93       	push	r25

00000296 <.Loc.1>:
 296:	81 e0       	ldi	r24, 0x01	; 1
 298:	90 e0       	ldi	r25, 0x00	; 0
 29a:	20 91 94 01 	lds	r18, 0x0194	; 0x800194 <start>
 29e:	30 91 95 01 	lds	r19, 0x0195	; 0x800195 <start+0x1>
 2a2:	21 15       	cp	r18, r1
 2a4:	31 05       	cpc	r19, r1
 2a6:	11 f0       	breq	.+4      	; 0x2ac <.L2>
 2a8:	80 e0       	ldi	r24, 0x00	; 0
 2aa:	90 e0       	ldi	r25, 0x00	; 0

000002ac <.L2>:
 2ac:	90 93 95 01 	sts	0x0195, r25	; 0x800195 <start+0x1>
 2b0:	80 93 94 01 	sts	0x0194, r24	; 0x800194 <start>

000002b4 <.LBB20>:
 2b4:	8f e9       	ldi	r24, 0x9F	; 159
 2b6:	9f e0       	ldi	r25, 0x0F	; 15

000002b8 <.L1^B1>:
 2b8:	01 97       	sbiw	r24, 0x01	; 1
 2ba:	f1 f7       	brne	.-4      	; 0x2b8 <.L1^B1>
 2bc:	00 c0       	rjmp	.+0      	; 0x2be <L0^A>

000002be <L0^A>:
	...

000002c0 <.LBE20>:
 2c0:	9f 91       	pop	r25
 2c2:	8f 91       	pop	r24
 2c4:	3f 91       	pop	r19
 2c6:	2f 91       	pop	r18
 2c8:	1f 90       	pop	r1
 2ca:	1f be       	out	0x3f, r1	; 63
 2cc:	1f 90       	pop	r1
 2ce:	18 95       	reti

000002d0 <__vector_2>:
 2d0:	2f 93       	push	r18
 2d2:	2f b7       	in	r18, 0x3f	; 63
 2d4:	2f 93       	push	r18
 2d6:	3f 93       	push	r19
 2d8:	8f 93       	push	r24
 2da:	9f 93       	push	r25

000002dc <.Loc.15>:
 2dc:	80 91 92 01 	lds	r24, 0x0192	; 0x800192 <reset>
 2e0:	90 91 93 01 	lds	r25, 0x0193	; 0x800193 <reset+0x1>
 2e4:	20 91 94 01 	lds	r18, 0x0194	; 0x800194 <start>
 2e8:	30 91 95 01 	lds	r19, 0x0195	; 0x800195 <start+0x1>
 2ec:	82 2b       	or	r24, r18
 2ee:	93 2b       	or	r25, r19
 2f0:	89 2b       	or	r24, r25
 2f2:	31 f4       	brne	.+12     	; 0x300 <.L7>

000002f4 <.Loc.17>:
 2f4:	81 e0       	ldi	r24, 0x01	; 1
 2f6:	90 e0       	ldi	r25, 0x00	; 0
 2f8:	90 93 93 01 	sts	0x0193, r25	; 0x800193 <reset+0x1>
 2fc:	80 93 92 01 	sts	0x0192, r24	; 0x800192 <reset>

00000300 <.L7>:
 300:	8f e9       	ldi	r24, 0x9F	; 159
 302:	9f e0       	ldi	r25, 0x0F	; 15

00000304 <.L1^B2>:
 304:	01 97       	sbiw	r24, 0x01	; 1
 306:	f1 f7       	brne	.-4      	; 0x304 <.L1^B2>
 308:	00 c0       	rjmp	.+0      	; 0x30a <L0^A>

0000030a <L0^A>:
	...

0000030c <.LBE22>:
 30c:	9f 91       	pop	r25
 30e:	8f 91       	pop	r24
 310:	3f 91       	pop	r19
 312:	2f 91       	pop	r18
 314:	2f bf       	out	0x3f, r18	; 63
 316:	2f 91       	pop	r18
 318:	18 95       	reti

0000031a <__vector_11>:
 31a:	1f 92       	push	r1
 31c:	1f b6       	in	r1, 0x3f	; 63
 31e:	1f 92       	push	r1
 320:	11 24       	eor	r1, r1
 322:	8f 93       	push	r24
 324:	9f 93       	push	r25

00000326 <.Loc.30>:
 326:	80 91 94 01 	lds	r24, 0x0194	; 0x800194 <start>
 32a:	90 91 95 01 	lds	r25, 0x0195	; 0x800195 <start+0x1>
 32e:	81 30       	cpi	r24, 0x01	; 1
 330:	91 05       	cpc	r25, r1
 332:	61 f4       	brne	.+24     	; 0x34c <.L8>

00000334 <.Loc.32>:
 334:	80 91 8e 01 	lds	r24, 0x018E	; 0x80018e <seg>
 338:	90 91 8f 01 	lds	r25, 0x018F	; 0x80018f <seg+0x1>
 33c:	01 96       	adiw	r24, 0x01	; 1

0000033e <.Loc.34>:
 33e:	8c 33       	cpi	r24, 0x3C	; 60
 340:	91 05       	cpc	r25, r1
 342:	54 f4       	brge	.+20     	; 0x358 <.L11>

00000344 <.Loc.36>:
 344:	90 93 8f 01 	sts	0x018F, r25	; 0x80018f <seg+0x1>
 348:	80 93 8e 01 	sts	0x018E, r24	; 0x80018e <seg>

0000034c <.L8>:
 34c:	9f 91       	pop	r25
 34e:	8f 91       	pop	r24
 350:	1f 90       	pop	r1
 352:	1f be       	out	0x3f, r1	; 63
 354:	1f 90       	pop	r1
 356:	18 95       	reti

00000358 <.L11>:
 358:	10 92 8f 01 	sts	0x018F, r1	; 0x80018f <seg+0x1>
 35c:	10 92 8e 01 	sts	0x018E, r1	; 0x80018e <seg>

00000360 <.Loc.40>:
 360:	80 91 90 01 	lds	r24, 0x0190	; 0x800190 <minu>
 364:	90 91 91 01 	lds	r25, 0x0191	; 0x800191 <minu+0x1>
 368:	01 96       	adiw	r24, 0x01	; 1
 36a:	90 93 91 01 	sts	0x0191, r25	; 0x800191 <minu+0x1>
 36e:	80 93 90 01 	sts	0x0190, r24	; 0x800190 <minu>

00000372 <.Loc.42>:
 372:	ec cf       	rjmp	.-40     	; 0x34c <.L8>

00000374 <print_crono>:
 374:	cf 92       	push	r12
 376:	df 92       	push	r13
 378:	ef 92       	push	r14
 37a:	ff 92       	push	r15
 37c:	0f 93       	push	r16
 37e:	1f 93       	push	r17
 380:	cf 93       	push	r28
 382:	df 93       	push	r29
 384:	7c 01       	movw	r14, r24
 386:	8b 01       	movw	r16, r22
 388:	ea 01       	movw	r28, r20

0000038a <.Loc.45>:
 38a:	80 91 91 01 	lds	r24, 0x0191	; 0x800191 <minu+0x1>

0000038e <.Loc.46>:
 38e:	8f 93       	push	r24
 390:	80 91 90 01 	lds	r24, 0x0190	; 0x800190 <minu>
 394:	8f 93       	push	r24
 396:	8d e1       	ldi	r24, 0x1D	; 29
 398:	c8 2e       	mov	r12, r24
 39a:	81 e0       	ldi	r24, 0x01	; 1
 39c:	d8 2e       	mov	r13, r24
 39e:	df 92       	push	r13
 3a0:	cf 92       	push	r12
 3a2:	ff 92       	push	r15
 3a4:	ef 92       	push	r14
 3a6:	0e 94 70 04 	call	0x8e0	; 0x8e0 <sprintf>

000003aa <.LVL6>:
 3aa:	80 91 8f 01 	lds	r24, 0x018F	; 0x80018f <seg+0x1>
 3ae:	8f 93       	push	r24
 3b0:	80 91 8e 01 	lds	r24, 0x018E	; 0x80018e <seg>
 3b4:	8f 93       	push	r24
 3b6:	df 92       	push	r13
 3b8:	cf 92       	push	r12
 3ba:	1f 93       	push	r17
 3bc:	0f 93       	push	r16
 3be:	0e 94 70 04 	call	0x8e0	; 0x8e0 <sprintf>

000003c2 <.LVL7>:
 3c2:	8d b7       	in	r24, 0x3d	; 61
 3c4:	9e b7       	in	r25, 0x3e	; 62
 3c6:	0c 96       	adiw	r24, 0x0c	; 12
 3c8:	0f b6       	in	r0, 0x3f	; 63
 3ca:	f8 94       	cli
 3cc:	9e bf       	out	0x3e, r25	; 62
 3ce:	0f be       	out	0x3f, r0	; 63
 3d0:	8d bf       	out	0x3d, r24	; 61
 3d2:	80 91 90 01 	lds	r24, 0x0190	; 0x800190 <minu>
 3d6:	90 91 91 01 	lds	r25, 0x0191	; 0x800191 <minu+0x1>
 3da:	0a 97       	sbiw	r24, 0x0a	; 10
 3dc:	2c f4       	brge	.+10     	; 0x3e8 <.L14>

000003de <.Loc.50>:
 3de:	60 e2       	ldi	r22, 0x20	; 32
 3e0:	71 e0       	ldi	r23, 0x01	; 1
 3e2:	ce 01       	movw	r24, r28
 3e4:	0e 94 65 04 	call	0x8ca	; 0x8ca <strcat>

000003e8 <.L14>:
 3e8:	b7 01       	movw	r22, r14
 3ea:	ce 01       	movw	r24, r28
 3ec:	0e 94 65 04 	call	0x8ca	; 0x8ca <strcat>

000003f0 <.LVL9>:
 3f0:	62 e2       	ldi	r22, 0x22	; 34
 3f2:	71 e0       	ldi	r23, 0x01	; 1
 3f4:	ce 01       	movw	r24, r28
 3f6:	0e 94 65 04 	call	0x8ca	; 0x8ca <strcat>

000003fa <.LVL10>:
 3fa:	80 91 8e 01 	lds	r24, 0x018E	; 0x80018e <seg>
 3fe:	90 91 8f 01 	lds	r25, 0x018F	; 0x80018f <seg+0x1>
 402:	0a 97       	sbiw	r24, 0x0a	; 10
 404:	2c f4       	brge	.+10     	; 0x410 <.L15>

00000406 <.Loc.55>:
 406:	60 e2       	ldi	r22, 0x20	; 32
 408:	71 e0       	ldi	r23, 0x01	; 1
 40a:	ce 01       	movw	r24, r28
 40c:	0e 94 65 04 	call	0x8ca	; 0x8ca <strcat>

00000410 <.L15>:
 410:	b8 01       	movw	r22, r16
 412:	ce 01       	movw	r24, r28
 414:	0e 94 65 04 	call	0x8ca	; 0x8ca <strcat>

00000418 <.LVL12>:
 418:	67 e1       	ldi	r22, 0x17	; 23
 41a:	87 e0       	ldi	r24, 0x07	; 7
 41c:	0e 94 77 03 	call	0x6ee	; 0x6ee <nokia_lcd_set_cursor>

00000420 <.LVL13>:
 420:	62 e0       	ldi	r22, 0x02	; 2
 422:	ce 01       	movw	r24, r28
 424:	0e 94 67 03 	call	0x6ce	; 0x6ce <nokia_lcd_write_string>

00000428 <.LVL14>:
 428:	60 e2       	ldi	r22, 0x20	; 32
 42a:	81 e4       	ldi	r24, 0x41	; 65
 42c:	0e 94 77 03 	call	0x6ee	; 0x6ee <nokia_lcd_set_cursor>

00000430 <.LVL15>:
 430:	18 82       	st	Y, r1

00000432 <.Loc.62>:
 432:	df 91       	pop	r29
 434:	cf 91       	pop	r28

00000436 <.Loc.64>:
 436:	1f 91       	pop	r17
 438:	0f 91       	pop	r16

0000043a <.Loc.65>:
 43a:	ff 90       	pop	r15
 43c:	ef 90       	pop	r14

0000043e <.Loc.66>:
 43e:	df 90       	pop	r13
 440:	cf 90       	pop	r12

00000442 <.Loc.67>:
 442:	0c 94 7c 03 	jmp	0x6f8	; 0x6f8 <nokia_lcd_render>

00000446 <write>:
 446:	29 98       	cbi	0x05, 1	; 5

00000448 <.Loc.4>:
 448:	66 23       	and	r22, r22
 44a:	a9 f0       	breq	.+42     	; 0x476 <.L2>

0000044c <.Loc.6>:
 44c:	2b 9a       	sbi	0x05, 3	; 5

0000044e <.L3>:
 44e:	27 e0       	ldi	r18, 0x07	; 7
 450:	30 e0       	ldi	r19, 0x00	; 0

00000452 <.Loc.10>:
 452:	90 e0       	ldi	r25, 0x00	; 0

00000454 <.L6>:
 454:	ac 01       	movw	r20, r24
 456:	02 2e       	mov	r0, r18
 458:	02 c0       	rjmp	.+4      	; 0x45e <.L2^B1>

0000045a <.L1^B1>:
 45a:	55 95       	asr	r21
 45c:	47 95       	ror	r20

0000045e <.L2^B1>:
 45e:	0a 94       	dec	r0
 460:	e2 f7       	brpl	.-8      	; 0x45a <.L1^B1>

00000462 <.Loc.13>:
 462:	40 ff       	sbrs	r20, 0
 464:	0a c0       	rjmp	.+20     	; 0x47a <.L4>

00000466 <.Loc.14>:
 466:	2c 9a       	sbi	0x05, 4	; 5

00000468 <.L5>:
 468:	2d 9a       	sbi	0x05, 5	; 5

0000046a <.Loc.18>:
 46a:	2d 98       	cbi	0x05, 5	; 5

0000046c <.Loc.20>:
 46c:	21 50       	subi	r18, 0x01	; 1
 46e:	31 09       	sbc	r19, r1
 470:	88 f7       	brcc	.-30     	; 0x454 <.L6>

00000472 <.Loc.22>:
 472:	29 9a       	sbi	0x05, 1	; 5

00000474 <.Loc.24>:
 474:	08 95       	ret

00000476 <.L2>:
 476:	2b 98       	cbi	0x05, 3	; 5

00000478 <.Loc.27>:
 478:	ea cf       	rjmp	.-44     	; 0x44e <.L3>

0000047a <.L4>:
 47a:	2c 98       	cbi	0x05, 4	; 5
 47c:	f5 cf       	rjmp	.-22     	; 0x468 <.L5>

0000047e <write_cmd>:
 47e:	60 e0       	ldi	r22, 0x00	; 0
 480:	0c 94 23 02 	jmp	0x446	; 0x446 <write>

00000484 <nokia_lcd_init>:
 484:	cf 93       	push	r28
 486:	df 93       	push	r29

00000488 <.Loc.34>:
 488:	21 9a       	sbi	0x04, 1	; 4

0000048a <.Loc.37>:
 48a:	22 9a       	sbi	0x04, 2	; 4

0000048c <.Loc.39>:
 48c:	23 9a       	sbi	0x04, 3	; 4

0000048e <.Loc.41>:
 48e:	24 9a       	sbi	0x04, 4	; 4

00000490 <.Loc.43>:
 490:	25 9a       	sbi	0x04, 5	; 4

00000492 <.Loc.45>:
 492:	2a 9a       	sbi	0x05, 2	; 5

00000494 <.Loc.47>:
 494:	29 9a       	sbi	0x05, 1	; 5

00000496 <.LBB20>:
 496:	8f e3       	ldi	r24, 0x3F	; 63
 498:	9c e9       	ldi	r25, 0x9C	; 156

0000049a <.L1^B2>:
 49a:	01 97       	sbiw	r24, 0x01	; 1
 49c:	f1 f7       	brne	.-4      	; 0x49a <.L1^B2>
 49e:	00 c0       	rjmp	.+0      	; 0x4a0 <L0^A>

000004a0 <L0^A>:
	...

000004a2 <.LBE20>:
 4a2:	2a 98       	cbi	0x05, 2	; 5

000004a4 <.LBB22>:
 4a4:	9f ef       	ldi	r25, 0xFF	; 255
 4a6:	2a e6       	ldi	r18, 0x6A	; 106
 4a8:	83 e0       	ldi	r24, 0x03	; 3

000004aa <.L1^B3>:
 4aa:	91 50       	subi	r25, 0x01	; 1
 4ac:	20 40       	sbci	r18, 0x00	; 0
 4ae:	80 40       	sbci	r24, 0x00	; 0
 4b0:	e1 f7       	brne	.-8      	; 0x4aa <.L1^B3>
 4b2:	00 c0       	rjmp	.+0      	; 0x4b4 <L0^A>

000004b4 <L0^A>:
	...

000004b6 <.LBE22>:
 4b6:	2a 9a       	sbi	0x05, 2	; 5

000004b8 <.Loc.71>:
 4b8:	29 98       	cbi	0x05, 1	; 5

000004ba <.Loc.73>:
 4ba:	81 e2       	ldi	r24, 0x21	; 33
 4bc:	0e 94 3f 02 	call	0x47e	; 0x47e <write_cmd>

000004c0 <.LVL14>:
 4c0:	83 e1       	ldi	r24, 0x13	; 19
 4c2:	0e 94 3f 02 	call	0x47e	; 0x47e <write_cmd>

000004c6 <.LVL15>:
 4c6:	86 e0       	ldi	r24, 0x06	; 6
 4c8:	0e 94 3f 02 	call	0x47e	; 0x47e <write_cmd>

000004cc <.LVL16>:
 4cc:	82 ec       	ldi	r24, 0xC2	; 194
 4ce:	0e 94 3f 02 	call	0x47e	; 0x47e <write_cmd>

000004d2 <.LVL17>:
 4d2:	80 e2       	ldi	r24, 0x20	; 32
 4d4:	0e 94 3f 02 	call	0x47e	; 0x47e <write_cmd>

000004d8 <.LVL18>:
 4d8:	89 e0       	ldi	r24, 0x09	; 9
 4da:	0e 94 3f 02 	call	0x47e	; 0x47e <write_cmd>

000004de <.LVL19>:
 4de:	80 e8       	ldi	r24, 0x80	; 128
 4e0:	0e 94 3f 02 	call	0x47e	; 0x47e <write_cmd>

000004e4 <.LVL20>:
 4e4:	80 e4       	ldi	r24, 0x40	; 64
 4e6:	0e 94 3f 02 	call	0x47e	; 0x47e <write_cmd>

000004ea <.LVL21>:
 4ea:	c8 ef       	ldi	r28, 0xF8	; 248
 4ec:	d1 e0       	ldi	r29, 0x01	; 1

000004ee <.L10>:
 4ee:	61 e0       	ldi	r22, 0x01	; 1
 4f0:	80 e0       	ldi	r24, 0x00	; 0
 4f2:	0e 94 23 02 	call	0x446	; 0x446 <write>

000004f6 <.LBE24>:
 4f6:	21 97       	sbiw	r28, 0x01	; 1

000004f8 <.Loc.90>:
 4f8:	20 97       	sbiw	r28, 0x00	; 0
 4fa:	c9 f7       	brne	.-14     	; 0x4ee <.L10>

000004fc <.Loc.91>:
 4fc:	88 e0       	ldi	r24, 0x08	; 8
 4fe:	0e 94 3f 02 	call	0x47e	; 0x47e <write_cmd>

00000502 <.LVL25>:
 502:	8c e0       	ldi	r24, 0x0C	; 12

00000504 <.Loc.93>:
 504:	df 91       	pop	r29
 506:	cf 91       	pop	r28

00000508 <.Loc.94>:
 508:	0c 94 3f 02 	jmp	0x47e	; 0x47e <write_cmd>

0000050c <nokia_lcd_clear>:
 50c:	80 e8       	ldi	r24, 0x80	; 128
 50e:	0e 94 3f 02 	call	0x47e	; 0x47e <write_cmd>

00000512 <.LVL28>:
 512:	80 e4       	ldi	r24, 0x40	; 64
 514:	0e 94 3f 02 	call	0x47e	; 0x47e <write_cmd>

00000518 <.LVL29>:
 518:	10 92 ce 03 	sts	0x03CE, r1	; 0x8003ce <nokia_lcd+0x1f8>

0000051c <.Loc.100>:
 51c:	10 92 cf 03 	sts	0x03CF, r1	; 0x8003cf <nokia_lcd+0x1f9>

00000520 <.Loc.102>:
 520:	e6 ed       	ldi	r30, 0xD6	; 214
 522:	f1 e0       	ldi	r31, 0x01	; 1
 524:	88 ef       	ldi	r24, 0xF8	; 248
 526:	91 e0       	ldi	r25, 0x01	; 1
 528:	df 01       	movw	r26, r30
 52a:	9c 01       	movw	r18, r24

0000052c <.L^B1>:
 52c:	1d 92       	st	X+, r1
 52e:	21 50       	subi	r18, 0x01	; 1
 530:	30 40       	sbci	r19, 0x00	; 0
 532:	e1 f7       	brne	.-8      	; 0x52c <.L^B1>

00000534 <.Loc.103>:
 534:	08 95       	ret

00000536 <nokia_lcd_power>:
 536:	88 23       	and	r24, r24
 538:	19 f0       	breq	.+6      	; 0x540 <.L15>
 53a:	80 e2       	ldi	r24, 0x20	; 32

0000053c <.L14>:
 53c:	0c 94 3f 02 	jmp	0x47e	; 0x47e <write_cmd>

00000540 <.L15>:
 540:	84 e2       	ldi	r24, 0x24	; 36

00000542 <.Loc.108>:
 542:	fc cf       	rjmp	.-8      	; 0x53c <.L14>

00000544 <nokia_lcd_set_pixel>:
 544:	96 2f       	mov	r25, r22
 546:	96 95       	lsr	r25
 548:	96 95       	lsr	r25
 54a:	96 95       	lsr	r25

0000054c <.Loc.112>:
 54c:	e8 2f       	mov	r30, r24
 54e:	f0 e0       	ldi	r31, 0x00	; 0
 550:	84 e5       	ldi	r24, 0x54	; 84

00000552 <.Loc.113>:
 552:	98 9f       	mul	r25, r24
 554:	e0 0d       	add	r30, r0
 556:	f1 1d       	adc	r31, r1
 558:	11 24       	eor	r1, r1

0000055a <.Loc.114>:
 55a:	ea 52       	subi	r30, 0x2A	; 42
 55c:	fe 4f       	sbci	r31, 0xFE	; 254

0000055e <.Loc.116>:
 55e:	20 81       	ld	r18, Z

00000560 <.Loc.117>:
 560:	67 70       	andi	r22, 0x07	; 7

00000562 <.Loc.118>:
 562:	81 e0       	ldi	r24, 0x01	; 1
 564:	90 e0       	ldi	r25, 0x00	; 0
 566:	dc 01       	movw	r26, r24
 568:	02 c0       	rjmp	.+4      	; 0x56e <.L2^B2>

0000056a <.L1^B4>:
 56a:	aa 0f       	add	r26, r26
 56c:	bb 1f       	adc	r27, r27

0000056e <.L2^B2>:
 56e:	6a 95       	dec	r22
 570:	e2 f7       	brpl	.-8      	; 0x56a <.L1^B4>
 572:	bd 01       	movw	r22, r26

00000574 <.Loc.119>:
 574:	44 23       	and	r20, r20
 576:	19 f0       	breq	.+6      	; 0x57e <.L17>

00000578 <.Loc.120>:
 578:	2a 2b       	or	r18, r26

0000057a <.L18>:
 57a:	20 83       	st	Z, r18

0000057c <.Loc.122>:
 57c:	08 95       	ret

0000057e <.L17>:
 57e:	60 95       	com	r22
 580:	26 23       	and	r18, r22
 582:	fb cf       	rjmp	.-10     	; 0x57a <.L18>

00000584 <nokia_lcd_write_char>:
 584:	8f 92       	push	r8
 586:	9f 92       	push	r9
 588:	af 92       	push	r10
 58a:	bf 92       	push	r11
 58c:	cf 92       	push	r12
 58e:	df 92       	push	r13
 590:	ff 92       	push	r15
 592:	0f 93       	push	r16
 594:	1f 93       	push	r17
 596:	cf 93       	push	r28
 598:	df 93       	push	r29
 59a:	00 d0       	rcall	.+0      	; 0x59c <L0^A>

0000059c <L0^A>:
 59c:	00 d0       	rcall	.+0      	; 0x59e <L0^A>

0000059e <L0^A>:
 59e:	0f 92       	push	r0
 5a0:	cd b7       	in	r28, 0x3d	; 61
 5a2:	de b7       	in	r29, 0x3e	; 62
 5a4:	e8 2f       	mov	r30, r24
 5a6:	16 2f       	mov	r17, r22

000005a8 <.Loc.127>:
 5a8:	80 32       	cpi	r24, 0x20	; 32
 5aa:	0c f4       	brge	.+2      	; 0x5ae <.Loc.133>

000005ac <L0^A>:
 5ac:	4f c0       	rjmp	.+158    	; 0x64c <.L20>

000005ae <.Loc.133>:
 5ae:	e0 52       	subi	r30, 0x20	; 32
 5b0:	85 e0       	ldi	r24, 0x05	; 5

000005b2 <.Loc.135>:
 5b2:	e8 02       	muls	r30, r24
 5b4:	b0 01       	movw	r22, r0
 5b6:	11 24       	eor	r1, r1

000005b8 <.Loc.136>:
 5b8:	68 59       	subi	r22, 0x98	; 152
 5ba:	7f 4f       	sbci	r23, 0xFF	; 255

000005bc <.Loc.137>:
 5bc:	45 e0       	ldi	r20, 0x05	; 5
 5be:	50 e0       	ldi	r21, 0x00	; 0

000005c0 <.L31>:
 5c0:	ce 01       	movw	r24, r28
 5c2:	01 96       	adiw	r24, 0x01	; 1
 5c4:	0e 94 5c 04 	call	0x8b8	; 0x8b8 <memcpy_P>

000005c8 <.LVL43>:
 5c8:	ce 01       	movw	r24, r28
 5ca:	01 96       	adiw	r24, 0x01	; 1
 5cc:	6c 01       	movw	r12, r24

000005ce <.L22>:
 5ce:	95 e0       	ldi	r25, 0x05	; 5
 5d0:	19 9f       	mul	r17, r25
 5d2:	50 01       	movw	r10, r0
 5d4:	11 24       	eor	r1, r1

000005d6 <.Loc.143>:
 5d6:	87 e0       	ldi	r24, 0x07	; 7
 5d8:	18 9f       	mul	r17, r24
 5da:	40 01       	movw	r8, r0
 5dc:	11 24       	eor	r1, r1

000005de <.Loc.144>:
 5de:	00 e0       	ldi	r16, 0x00	; 0

000005e0 <.L23>:
 5e0:	80 2f       	mov	r24, r16
 5e2:	90 e0       	ldi	r25, 0x00	; 0
 5e4:	8a 15       	cp	r24, r10
 5e6:	9b 05       	cpc	r25, r11
 5e8:	0c f4       	brge	.+2      	; 0x5ec <.Loc.146>

000005ea <L0^A>:
 5ea:	65 c0       	rjmp	.+202    	; 0x6b6 <.L30>

000005ec <.Loc.146>:
 5ec:	80 91 ce 03 	lds	r24, 0x03CE	; 0x8003ce <nokia_lcd+0x1f8>
 5f0:	8f 5f       	subi	r24, 0xFF	; 255
 5f2:	91 2f       	mov	r25, r17
 5f4:	99 0f       	add	r25, r25
 5f6:	99 0f       	add	r25, r25
 5f8:	91 0f       	add	r25, r17
 5fa:	89 0f       	add	r24, r25
 5fc:	80 93 ce 03 	sts	0x03CE, r24	; 0x8003ce <nokia_lcd+0x1f8>

00000600 <.Loc.148>:
 600:	84 35       	cpi	r24, 0x54	; 84
 602:	58 f0       	brcs	.+22     	; 0x61a <.L28>

00000604 <.Loc.150>:
 604:	80 91 cf 03 	lds	r24, 0x03CF	; 0x8003cf <nokia_lcd+0x1f9>

00000608 <.Loc.151>:
 608:	10 92 ce 03 	sts	0x03CE, r1	; 0x8003ce <nokia_lcd+0x1f8>

0000060c <.Loc.153>:
 60c:	8f 5f       	subi	r24, 0xFF	; 255
 60e:	97 e0       	ldi	r25, 0x07	; 7
 610:	19 9f       	mul	r17, r25
 612:	80 0d       	add	r24, r0
 614:	11 24       	eor	r1, r1
 616:	80 93 cf 03 	sts	0x03CF, r24	; 0x8003cf <nokia_lcd+0x1f9>

0000061a <.L28>:
 61a:	80 91 cf 03 	lds	r24, 0x03CF	; 0x8003cf <nokia_lcd+0x1f9>
 61e:	80 33       	cpi	r24, 0x30	; 48
 620:	20 f0       	brcs	.+8      	; 0x62a <.L19>

00000622 <.Loc.157>:
 622:	10 92 ce 03 	sts	0x03CE, r1	; 0x8003ce <nokia_lcd+0x1f8>

00000626 <.Loc.159>:
 626:	10 92 cf 03 	sts	0x03CF, r1	; 0x8003cf <nokia_lcd+0x1f9>

0000062a <.L19>:
 62a:	0f 90       	pop	r0
 62c:	0f 90       	pop	r0
 62e:	0f 90       	pop	r0
 630:	0f 90       	pop	r0
 632:	0f 90       	pop	r0
 634:	df 91       	pop	r29
 636:	cf 91       	pop	r28
 638:	1f 91       	pop	r17

0000063a <.Loc.162>:
 63a:	0f 91       	pop	r16

0000063c <.Loc.163>:
 63c:	ff 90       	pop	r15
 63e:	df 90       	pop	r13
 640:	cf 90       	pop	r12

00000642 <.Loc.164>:
 642:	bf 90       	pop	r11
 644:	af 90       	pop	r10
 646:	9f 90       	pop	r9
 648:	8f 90       	pop	r8
 64a:	08 95       	ret

0000064c <.L20>:
 64c:	ee 0f       	add	r30, r30
 64e:	ff 0b       	sbc	r31, r31
 650:	ea 56       	subi	r30, 0x6A	; 106
 652:	fe 4f       	sbci	r31, 0xFE	; 254
 654:	c0 80       	ld	r12, Z
 656:	d1 80       	ldd	r13, Z+1	; 0x01

00000658 <.Loc.167>:
 658:	c1 14       	cp	r12, r1
 65a:	d1 04       	cpc	r13, r1
 65c:	09 f0       	breq	.+2      	; 0x660 <.Loc.168>

0000065e <L0^A>:
 65e:	b7 cf       	rjmp	.-146    	; 0x5ce <.L22>

00000660 <.Loc.168>:
 660:	45 e0       	ldi	r20, 0x05	; 5
 662:	50 e0       	ldi	r21, 0x00	; 0
 664:	68 e6       	ldi	r22, 0x68	; 104
 666:	70 e0       	ldi	r23, 0x00	; 0
 668:	ab cf       	rjmp	.-170    	; 0x5c0 <.L31>

0000066a <.L26>:
 66a:	ef 0d       	add	r30, r15
 66c:	50 0f       	add	r21, r16

0000066e <.Loc.171>:
 66e:	80 2f       	mov	r24, r16
 670:	61 2f       	mov	r22, r17
 672:	0e 94 28 04 	call	0x850	; 0x850 <__udivmodqi4>

00000676 <.Loc.172>:
 676:	d6 01       	movw	r26, r12
 678:	a8 0f       	add	r26, r24
 67a:	b1 1d       	adc	r27, r1
 67c:	2c 91       	ld	r18, X
 67e:	30 e0       	ldi	r19, 0x00	; 0

00000680 <.Loc.173>:
 680:	8f 2d       	mov	r24, r15
 682:	0e 94 28 04 	call	0x850	; 0x850 <__udivmodqi4>

00000686 <.Loc.174>:
 686:	02 c0       	rjmp	.+4      	; 0x68c <.L2^B3>

00000688 <.L1^B5>:
 688:	35 95       	asr	r19
 68a:	27 95       	ror	r18

0000068c <.L2^B3>:
 68c:	8a 95       	dec	r24
 68e:	e2 f7       	brpl	.-8      	; 0x688 <.L1^B5>

00000690 <.Loc.175>:
 690:	41 e0       	ldi	r20, 0x01	; 1

00000692 <.Loc.176>:
 692:	20 ff       	sbrs	r18, 0

00000694 <.Loc.177>:
 694:	40 e0       	ldi	r20, 0x00	; 0

00000696 <.Loc.178>:
 696:	6e 2f       	mov	r22, r30
 698:	85 2f       	mov	r24, r21
 69a:	0e 94 a2 02 	call	0x544	; 0x544 <nokia_lcd_set_pixel>

0000069e <.LVL51>:
 69e:	f3 94       	inc	r15

000006a0 <.L27>:
 6a0:	e0 91 cf 03 	lds	r30, 0x03CF	; 0x8003cf <nokia_lcd+0x1f9>

000006a4 <.Loc.182>:
 6a4:	50 91 ce 03 	lds	r21, 0x03CE	; 0x8003ce <nokia_lcd+0x1f8>

000006a8 <.Loc.183>:
 6a8:	8f 2d       	mov	r24, r15
 6aa:	90 e0       	ldi	r25, 0x00	; 0
 6ac:	88 15       	cp	r24, r8
 6ae:	99 05       	cpc	r25, r9
 6b0:	e4 f2       	brlt	.-72     	; 0x66a <.L26>

000006b2 <.Loc.184>:
 6b2:	0f 5f       	subi	r16, 0xFF	; 255

000006b4 <.Loc.185>:
 6b4:	95 cf       	rjmp	.-214    	; 0x5e0 <.L23>

000006b6 <.L30>:
 6b6:	f1 2c       	mov	r15, r1
 6b8:	f3 cf       	rjmp	.-26     	; 0x6a0 <.L27>

000006ba <nokia_lcd_custom>:
 6ba:	80 32       	cpi	r24, 0x20	; 32
 6bc:	3c f4       	brge	.+14     	; 0x6cc <.L33>

000006be <.Loc.190>:
 6be:	e8 2f       	mov	r30, r24
 6c0:	ee 0f       	add	r30, r30
 6c2:	ff 0b       	sbc	r31, r31
 6c4:	ea 56       	subi	r30, 0x6A	; 106
 6c6:	fe 4f       	sbci	r31, 0xFE	; 254
 6c8:	71 83       	std	Z+1, r23	; 0x01
 6ca:	60 83       	st	Z, r22

000006cc <.L33>:
 6cc:	08 95       	ret

000006ce <nokia_lcd_write_string>:
 6ce:	1f 93       	push	r17
 6d0:	cf 93       	push	r28
 6d2:	df 93       	push	r29
 6d4:	16 2f       	mov	r17, r22

000006d6 <.Loc.195>:
 6d6:	ec 01       	movw	r28, r24

000006d8 <.L36>:
 6d8:	89 91       	ld	r24, Y+

000006da <.Loc.197>:
 6da:	81 11       	cpse	r24, r1
 6dc:	04 c0       	rjmp	.+8      	; 0x6e6 <.L37>

000006de <.Loc.198>:
 6de:	df 91       	pop	r29
 6e0:	cf 91       	pop	r28

000006e2 <.Loc.199>:
 6e2:	1f 91       	pop	r17

000006e4 <.Loc.200>:
 6e4:	08 95       	ret

000006e6 <.L37>:
 6e6:	61 2f       	mov	r22, r17
 6e8:	0e 94 c2 02 	call	0x584	; 0x584 <nokia_lcd_write_char>

000006ec <.LVL62>:
 6ec:	f5 cf       	rjmp	.-22     	; 0x6d8 <.L36>

000006ee <nokia_lcd_set_cursor>:
 6ee:	80 93 ce 03 	sts	0x03CE, r24	; 0x8003ce <nokia_lcd+0x1f8>

000006f2 <.Loc.206>:
 6f2:	60 93 cf 03 	sts	0x03CF, r22	; 0x8003cf <nokia_lcd+0x1f9>

000006f6 <.Loc.208>:
 6f6:	08 95       	ret

000006f8 <nokia_lcd_render>:
 6f8:	cf 93       	push	r28
 6fa:	df 93       	push	r29

000006fc <.Loc.210>:
 6fc:	80 e8       	ldi	r24, 0x80	; 128
 6fe:	0e 94 3f 02 	call	0x47e	; 0x47e <write_cmd>

00000702 <.LVL64>:
 702:	80 e4       	ldi	r24, 0x40	; 64
 704:	0e 94 3f 02 	call	0x47e	; 0x47e <write_cmd>

00000708 <.LVL65>:
 708:	c6 ed       	ldi	r28, 0xD6	; 214
 70a:	d1 e0       	ldi	r29, 0x01	; 1

0000070c <.L40>:
 70c:	61 e0       	ldi	r22, 0x01	; 1
 70e:	89 91       	ld	r24, Y+

00000710 <.Loc.218>:
 710:	0e 94 23 02 	call	0x446	; 0x446 <write>

00000714 <.LBE28>:
 714:	83 e0       	ldi	r24, 0x03	; 3
 716:	ce 3c       	cpi	r28, 0xCE	; 206
 718:	d8 07       	cpc	r29, r24
 71a:	c1 f7       	brne	.-16     	; 0x70c <.L40>

0000071c <.Loc.222>:
 71c:	df 91       	pop	r29
 71e:	cf 91       	pop	r28

00000720 <.Loc.223>:
 720:	08 95       	ret

00000722 <main>:
 722:	f8 94       	cli

00000724 <.Loc.70>:
 724:	10 92 80 00 	sts	0x0080, r1	; 0x800080 <__TEXT_REGION_LENGTH__+0x7e0080>

00000728 <.Loc.72>:
 728:	e1 e8       	ldi	r30, 0x81	; 129
 72a:	f0 e0       	ldi	r31, 0x00	; 0
 72c:	10 82       	st	Z, r1

0000072e <.Loc.74>:
 72e:	10 92 85 00 	sts	0x0085, r1	; 0x800085 <__TEXT_REGION_LENGTH__+0x7e0085>
 732:	10 92 84 00 	sts	0x0084, r1	; 0x800084 <__TEXT_REGION_LENGTH__+0x7e0084>

00000736 <.Loc.76>:
 736:	80 91 02 01 	lds	r24, 0x0102	; 0x800102 <TIMER_CLK>
 73a:	90 91 03 01 	lds	r25, 0x0103	; 0x800103 <TIMER_CLK+0x1>
 73e:	60 91 00 01 	lds	r22, 0x0100	; 0x800100 <IRQ_FREQ>
 742:	70 91 01 01 	lds	r23, 0x0101	; 0x800101 <IRQ_FREQ+0x1>
 746:	0e 94 34 04 	call	0x868	; 0x868 <__divmodhi4>

0000074a <.Loc.78>:
 74a:	61 50       	subi	r22, 0x01	; 1
 74c:	71 09       	sbc	r23, r1

0000074e <.Loc.79>:
 74e:	70 93 89 00 	sts	0x0089, r23	; 0x800089 <__TEXT_REGION_LENGTH__+0x7e0089>
 752:	60 93 88 00 	sts	0x0088, r22	; 0x800088 <__TEXT_REGION_LENGTH__+0x7e0088>

00000756 <.Loc.80>:
 756:	80 81       	ld	r24, Z

00000758 <.Loc.81>:
 758:	88 60       	ori	r24, 0x08	; 8
 75a:	80 83       	st	Z, r24

0000075c <.Loc.82>:
 75c:	80 81       	ld	r24, Z

0000075e <.Loc.83>:
 75e:	85 60       	ori	r24, 0x05	; 5
 760:	80 83       	st	Z, r24

00000762 <.Loc.84>:
 762:	ef e6       	ldi	r30, 0x6F	; 111
 764:	f0 e0       	ldi	r31, 0x00	; 0
 766:	80 81       	ld	r24, Z

00000768 <.Loc.85>:
 768:	82 60       	ori	r24, 0x02	; 2
 76a:	80 83       	st	Z, r24

0000076c <.Loc.86>:
 76c:	55 9a       	sbi	0x0a, 5	; 10

0000076e <.Loc.88>:
 76e:	8a b1       	in	r24, 0x0a	; 10
 770:	83 7f       	andi	r24, 0xF3	; 243
 772:	8a b9       	out	0x0a, r24	; 10

00000774 <.Loc.90>:
 774:	8c e0       	ldi	r24, 0x0C	; 12
 776:	8b b9       	out	0x0b, r24	; 11

00000778 <.Loc.92>:
 778:	e9 e6       	ldi	r30, 0x69	; 105
 77a:	f0 e0       	ldi	r31, 0x00	; 0
 77c:	83 e0       	ldi	r24, 0x03	; 3
 77e:	80 83       	st	Z, r24

00000780 <.Loc.94>:
 780:	80 81       	ld	r24, Z

00000782 <.Loc.95>:
 782:	8c 60       	ori	r24, 0x0C	; 12
 784:	80 83       	st	Z, r24

00000786 <.Loc.96>:
 786:	8d b3       	in	r24, 0x1d	; 29

00000788 <.Loc.97>:
 788:	83 60       	ori	r24, 0x03	; 3
 78a:	8d bb       	out	0x1d, r24	; 29

0000078c <.Loc.98>:
 78c:	78 94       	sei

0000078e <.Loc.99>:
 78e:	0e 94 42 02 	call	0x484	; 0x484 <nokia_lcd_init>

00000792 <.LVL20>:
 792:	68 e1       	ldi	r22, 0x18	; 24
 794:	71 e0       	ldi	r23, 0x01	; 1
 796:	81 e0       	ldi	r24, 0x01	; 1
 798:	0e 94 5d 03 	call	0x6ba	; 0x6ba <nokia_lcd_custom>

0000079c <.LVL21>:
 79c:	69 e0       	ldi	r22, 0x09	; 9
 79e:	71 e0       	ldi	r23, 0x01	; 1
 7a0:	82 e0       	ldi	r24, 0x02	; 2
 7a2:	0e 94 5d 03 	call	0x6ba	; 0x6ba <nokia_lcd_custom>

000007a6 <.LVL22>:
 7a6:	64 e0       	ldi	r22, 0x04	; 4
 7a8:	71 e0       	ldi	r23, 0x01	; 1
 7aa:	83 e0       	ldi	r24, 0x03	; 3
 7ac:	0e 94 5d 03 	call	0x6ba	; 0x6ba <nokia_lcd_custom>

000007b0 <.LVL23>:
 7b0:	63 e1       	ldi	r22, 0x13	; 19
 7b2:	71 e0       	ldi	r23, 0x01	; 1
 7b4:	84 e0       	ldi	r24, 0x04	; 4
 7b6:	0e 94 5d 03 	call	0x6ba	; 0x6ba <nokia_lcd_custom>

000007ba <.LVL24>:
 7ba:	6e e0       	ldi	r22, 0x0E	; 14
 7bc:	71 e0       	ldi	r23, 0x01	; 1
 7be:	85 e0       	ldi	r24, 0x05	; 5
 7c0:	0e 94 5d 03 	call	0x6ba	; 0x6ba <nokia_lcd_custom>

000007c4 <.LVL25>:
 7c4:	61 e0       	ldi	r22, 0x01	; 1
 7c6:	84 e2       	ldi	r24, 0x24	; 36
 7c8:	91 e0       	ldi	r25, 0x01	; 1
 7ca:	0e 94 67 03 	call	0x6ce	; 0x6ce <nokia_lcd_write_string>

000007ce <.LVL26>:
 7ce:	68 e0       	ldi	r22, 0x08	; 8
 7d0:	80 e0       	ldi	r24, 0x00	; 0
 7d2:	0e 94 77 03 	call	0x6ee	; 0x6ee <nokia_lcd_set_cursor>

000007d6 <.LVL27>:
 7d6:	61 e0       	ldi	r22, 0x01	; 1
 7d8:	83 e3       	ldi	r24, 0x33	; 51
 7da:	91 e0       	ldi	r25, 0x01	; 1
 7dc:	0e 94 67 03 	call	0x6ce	; 0x6ce <nokia_lcd_write_string>

000007e0 <.LVL28>:
 7e0:	60 e1       	ldi	r22, 0x10	; 16
 7e2:	80 e0       	ldi	r24, 0x00	; 0
 7e4:	0e 94 77 03 	call	0x6ee	; 0x6ee <nokia_lcd_set_cursor>

000007e8 <.LVL29>:
 7e8:	61 e0       	ldi	r22, 0x01	; 1
 7ea:	82 e4       	ldi	r24, 0x42	; 66
 7ec:	91 e0       	ldi	r25, 0x01	; 1
 7ee:	0e 94 67 03 	call	0x6ce	; 0x6ce <nokia_lcd_write_string>

000007f2 <.LVL30>:
 7f2:	68 e1       	ldi	r22, 0x18	; 24
 7f4:	80 e0       	ldi	r24, 0x00	; 0
 7f6:	0e 94 77 03 	call	0x6ee	; 0x6ee <nokia_lcd_set_cursor>

000007fa <.LVL31>:
 7fa:	61 e0       	ldi	r22, 0x01	; 1
 7fc:	81 e5       	ldi	r24, 0x51	; 81
 7fe:	91 e0       	ldi	r25, 0x01	; 1
 800:	0e 94 67 03 	call	0x6ce	; 0x6ce <nokia_lcd_write_string>

00000804 <.LVL32>:
 804:	60 e2       	ldi	r22, 0x20	; 32
 806:	80 e0       	ldi	r24, 0x00	; 0
 808:	0e 94 77 03 	call	0x6ee	; 0x6ee <nokia_lcd_set_cursor>

0000080c <.LVL33>:
 80c:	61 e0       	ldi	r22, 0x01	; 1
 80e:	80 e6       	ldi	r24, 0x60	; 96
 810:	91 e0       	ldi	r25, 0x01	; 1
 812:	0e 94 67 03 	call	0x6ce	; 0x6ce <nokia_lcd_write_string>

00000816 <.LVL34>:
 816:	66 e2       	ldi	r22, 0x26	; 38
 818:	80 e0       	ldi	r24, 0x00	; 0
 81a:	0e 94 77 03 	call	0x6ee	; 0x6ee <nokia_lcd_set_cursor>

0000081e <.LVL35>:
 81e:	61 e0       	ldi	r22, 0x01	; 1
 820:	8f e6       	ldi	r24, 0x6F	; 111
 822:	91 e0       	ldi	r25, 0x01	; 1
 824:	0e 94 67 03 	call	0x6ce	; 0x6ce <nokia_lcd_write_string>

00000828 <.LVL36>:
 828:	68 e2       	ldi	r22, 0x28	; 40
 82a:	80 e0       	ldi	r24, 0x00	; 0
 82c:	0e 94 77 03 	call	0x6ee	; 0x6ee <nokia_lcd_set_cursor>

00000830 <.LVL37>:
 830:	61 e0       	ldi	r22, 0x01	; 1
 832:	8e e7       	ldi	r24, 0x7E	; 126
 834:	91 e0       	ldi	r25, 0x01	; 1
 836:	0e 94 67 03 	call	0x6ce	; 0x6ce <nokia_lcd_write_string>

0000083a <.LVL38>:
 83a:	0e 94 7c 03 	call	0x6f8	; 0x6f8 <nokia_lcd_render>

0000083e <.LBB24>:
 83e:	8f e9       	ldi	r24, 0x9F	; 159
 840:	9f e0       	ldi	r25, 0x0F	; 15

00000842 <.L1^B3>:
 842:	01 97       	sbiw	r24, 0x01	; 1
 844:	f1 f7       	brne	.-4      	; 0x842 <.L1^B3>
 846:	00 c0       	rjmp	.+0      	; 0x848 <L0^A>

00000848 <L0^A>:
	...

0000084a <.LBE24>:
 84a:	80 e0       	ldi	r24, 0x00	; 0
 84c:	90 e0       	ldi	r25, 0x00	; 0
 84e:	08 95       	ret

00000850 <__udivmodqi4>:
 850:	99 1b       	sub	r25, r25
 852:	79 e0       	ldi	r23, 0x09	; 9
 854:	04 c0       	rjmp	.+8      	; 0x85e <__udivmodqi4_ep>

00000856 <__udivmodqi4_loop>:
 856:	99 1f       	adc	r25, r25
 858:	96 17       	cp	r25, r22
 85a:	08 f0       	brcs	.+2      	; 0x85e <__udivmodqi4_ep>
 85c:	96 1b       	sub	r25, r22

0000085e <__udivmodqi4_ep>:
 85e:	88 1f       	adc	r24, r24
 860:	7a 95       	dec	r23
 862:	c9 f7       	brne	.-14     	; 0x856 <__udivmodqi4_loop>
 864:	80 95       	com	r24
 866:	08 95       	ret

00000868 <__divmodhi4>:
 868:	97 fb       	bst	r25, 7
 86a:	07 2e       	mov	r0, r23
 86c:	16 f4       	brtc	.+4      	; 0x872 <__divmodhi4+0xa>
 86e:	00 94       	com	r0
 870:	07 d0       	rcall	.+14     	; 0x880 <__divmodhi4_neg1>
 872:	77 fd       	sbrc	r23, 7
 874:	09 d0       	rcall	.+18     	; 0x888 <__divmodhi4_neg2>
 876:	0e 94 48 04 	call	0x890	; 0x890 <__udivmodhi4>
 87a:	07 fc       	sbrc	r0, 7
 87c:	05 d0       	rcall	.+10     	; 0x888 <__divmodhi4_neg2>
 87e:	3e f4       	brtc	.+14     	; 0x88e <__divmodhi4_exit>

00000880 <__divmodhi4_neg1>:
 880:	90 95       	com	r25
 882:	81 95       	neg	r24
 884:	9f 4f       	sbci	r25, 0xFF	; 255
 886:	08 95       	ret

00000888 <__divmodhi4_neg2>:
 888:	70 95       	com	r23
 88a:	61 95       	neg	r22
 88c:	7f 4f       	sbci	r23, 0xFF	; 255

0000088e <__divmodhi4_exit>:
 88e:	08 95       	ret

00000890 <__udivmodhi4>:
 890:	aa 1b       	sub	r26, r26
 892:	bb 1b       	sub	r27, r27
 894:	51 e1       	ldi	r21, 0x11	; 17
 896:	07 c0       	rjmp	.+14     	; 0x8a6 <__udivmodhi4_ep>

00000898 <__udivmodhi4_loop>:
 898:	aa 1f       	adc	r26, r26
 89a:	bb 1f       	adc	r27, r27
 89c:	a6 17       	cp	r26, r22
 89e:	b7 07       	cpc	r27, r23
 8a0:	10 f0       	brcs	.+4      	; 0x8a6 <__udivmodhi4_ep>
 8a2:	a6 1b       	sub	r26, r22
 8a4:	b7 0b       	sbc	r27, r23

000008a6 <__udivmodhi4_ep>:
 8a6:	88 1f       	adc	r24, r24
 8a8:	99 1f       	adc	r25, r25
 8aa:	5a 95       	dec	r21
 8ac:	a9 f7       	brne	.-22     	; 0x898 <__udivmodhi4_loop>
 8ae:	80 95       	com	r24
 8b0:	90 95       	com	r25
 8b2:	bc 01       	movw	r22, r24
 8b4:	cd 01       	movw	r24, r26
 8b6:	08 95       	ret

000008b8 <memcpy_P>:
 8b8:	fb 01       	movw	r30, r22
 8ba:	dc 01       	movw	r26, r24
 8bc:	02 c0       	rjmp	.+4      	; 0x8c2 <memcpy_P+0xa>
 8be:	05 90       	lpm	r0, Z+
 8c0:	0d 92       	st	X+, r0
 8c2:	41 50       	subi	r20, 0x01	; 1
 8c4:	50 40       	sbci	r21, 0x00	; 0
 8c6:	d8 f7       	brcc	.-10     	; 0x8be <memcpy_P+0x6>
 8c8:	08 95       	ret

000008ca <strcat>:
 8ca:	fb 01       	movw	r30, r22
 8cc:	dc 01       	movw	r26, r24
 8ce:	0d 90       	ld	r0, X+
 8d0:	00 20       	and	r0, r0
 8d2:	e9 f7       	brne	.-6      	; 0x8ce <strcat+0x4>
 8d4:	11 97       	sbiw	r26, 0x01	; 1
 8d6:	01 90       	ld	r0, Z+
 8d8:	0d 92       	st	X+, r0
 8da:	00 20       	and	r0, r0
 8dc:	e1 f7       	brne	.-8      	; 0x8d6 <strcat+0xc>
 8de:	08 95       	ret

000008e0 <sprintf>:
 8e0:	ae e0       	ldi	r26, 0x0E	; 14
 8e2:	b0 e0       	ldi	r27, 0x00	; 0
 8e4:	e6 e7       	ldi	r30, 0x76	; 118
 8e6:	f4 e0       	ldi	r31, 0x04	; 4
 8e8:	0c 94 18 07 	jmp	0xe30	; 0xe30 <__prologue_saves__+0x1c>
 8ec:	0d 89       	ldd	r16, Y+21	; 0x15
 8ee:	1e 89       	ldd	r17, Y+22	; 0x16
 8f0:	86 e0       	ldi	r24, 0x06	; 6
 8f2:	8c 83       	std	Y+4, r24	; 0x04
 8f4:	1a 83       	std	Y+2, r17	; 0x02
 8f6:	09 83       	std	Y+1, r16	; 0x01
 8f8:	8f ef       	ldi	r24, 0xFF	; 255
 8fa:	9f e7       	ldi	r25, 0x7F	; 127
 8fc:	9e 83       	std	Y+6, r25	; 0x06
 8fe:	8d 83       	std	Y+5, r24	; 0x05
 900:	ae 01       	movw	r20, r28
 902:	47 5e       	subi	r20, 0xE7	; 231
 904:	5f 4f       	sbci	r21, 0xFF	; 255
 906:	6f 89       	ldd	r22, Y+23	; 0x17
 908:	78 8d       	ldd	r23, Y+24	; 0x18
 90a:	ce 01       	movw	r24, r28
 90c:	01 96       	adiw	r24, 0x01	; 1
 90e:	0e 94 93 04 	call	0x926	; 0x926 <vfprintf>
 912:	2f 81       	ldd	r18, Y+7	; 0x07
 914:	38 85       	ldd	r19, Y+8	; 0x08
 916:	02 0f       	add	r16, r18
 918:	13 1f       	adc	r17, r19
 91a:	f8 01       	movw	r30, r16
 91c:	10 82       	st	Z, r1
 91e:	2e 96       	adiw	r28, 0x0e	; 14
 920:	e4 e0       	ldi	r30, 0x04	; 4
 922:	0c 94 34 07 	jmp	0xe68	; 0xe68 <__epilogue_restores__+0x1c>

00000926 <vfprintf>:
 926:	af e0       	ldi	r26, 0x0F	; 15
 928:	b0 e0       	ldi	r27, 0x00	; 0
 92a:	e9 e9       	ldi	r30, 0x99	; 153
 92c:	f4 e0       	ldi	r31, 0x04	; 4
 92e:	0c 94 0a 07 	jmp	0xe14	; 0xe14 <__prologue_saves__>
 932:	7c 01       	movw	r14, r24
 934:	3b 01       	movw	r6, r22
 936:	8a 01       	movw	r16, r20
 938:	dc 01       	movw	r26, r24
 93a:	17 96       	adiw	r26, 0x07	; 7
 93c:	1c 92       	st	X, r1
 93e:	1e 92       	st	-X, r1
 940:	16 97       	sbiw	r26, 0x06	; 6
 942:	13 96       	adiw	r26, 0x03	; 3
 944:	8c 91       	ld	r24, X
 946:	81 ff       	sbrs	r24, 1
 948:	be c1       	rjmp	.+892    	; 0xcc6 <vfprintf+0x3a0>
 94a:	9a e0       	ldi	r25, 0x0A	; 10
 94c:	29 2e       	mov	r2, r25
 94e:	fe 01       	movw	r30, r28
 950:	31 96       	adiw	r30, 0x01	; 1
 952:	4f 01       	movw	r8, r30
 954:	d7 01       	movw	r26, r14
 956:	13 96       	adiw	r26, 0x03	; 3
 958:	9c 91       	ld	r25, X
 95a:	f3 01       	movw	r30, r6
 95c:	93 fd       	sbrc	r25, 3
 95e:	85 91       	lpm	r24, Z+
 960:	93 ff       	sbrs	r25, 3
 962:	81 91       	ld	r24, Z+
 964:	3f 01       	movw	r6, r30
 966:	88 23       	and	r24, r24
 968:	09 f4       	brne	.+2      	; 0x96c <vfprintf+0x46>
 96a:	44 c1       	rjmp	.+648    	; 0xbf4 <vfprintf+0x2ce>
 96c:	85 32       	cpi	r24, 0x25	; 37
 96e:	39 f4       	brne	.+14     	; 0x97e <vfprintf+0x58>
 970:	93 fd       	sbrc	r25, 3
 972:	85 91       	lpm	r24, Z+
 974:	93 ff       	sbrs	r25, 3
 976:	81 91       	ld	r24, Z+
 978:	3f 01       	movw	r6, r30
 97a:	85 32       	cpi	r24, 0x25	; 37
 97c:	29 f4       	brne	.+10     	; 0x988 <vfprintf+0x62>
 97e:	b7 01       	movw	r22, r14
 980:	90 e0       	ldi	r25, 0x00	; 0
 982:	0e 94 7c 06 	call	0xcf8	; 0xcf8 <fputc>
 986:	e6 cf       	rjmp	.-52     	; 0x954 <vfprintf+0x2e>
 988:	b1 2c       	mov	r11, r1
 98a:	41 2c       	mov	r4, r1
 98c:	51 2c       	mov	r5, r1
 98e:	bf e1       	ldi	r27, 0x1F	; 31
 990:	b5 15       	cp	r27, r5
 992:	38 f0       	brcs	.+14     	; 0x9a2 <vfprintf+0x7c>
 994:	8b 32       	cpi	r24, 0x2B	; 43
 996:	09 f1       	breq	.+66     	; 0x9da <vfprintf+0xb4>
 998:	88 f4       	brcc	.+34     	; 0x9bc <vfprintf+0x96>
 99a:	80 32       	cpi	r24, 0x20	; 32
 99c:	01 f1       	breq	.+64     	; 0x9de <vfprintf+0xb8>
 99e:	83 32       	cpi	r24, 0x23	; 35
 9a0:	21 f1       	breq	.+72     	; 0x9ea <vfprintf+0xc4>
 9a2:	57 fc       	sbrc	r5, 7
 9a4:	3a c0       	rjmp	.+116    	; 0xa1a <vfprintf+0xf4>
 9a6:	20 ed       	ldi	r18, 0xD0	; 208
 9a8:	28 0f       	add	r18, r24
 9aa:	2a 30       	cpi	r18, 0x0A	; 10
 9ac:	40 f5       	brcc	.+80     	; 0x9fe <vfprintf+0xd8>
 9ae:	56 fe       	sbrs	r5, 6
 9b0:	1f c0       	rjmp	.+62     	; 0x9f0 <vfprintf+0xca>
 9b2:	b2 9c       	mul	r11, r2
 9b4:	20 0d       	add	r18, r0
 9b6:	11 24       	eor	r1, r1
 9b8:	b2 2e       	mov	r11, r18
 9ba:	06 c0       	rjmp	.+12     	; 0x9c8 <vfprintf+0xa2>
 9bc:	8d 32       	cpi	r24, 0x2D	; 45
 9be:	91 f0       	breq	.+36     	; 0x9e4 <vfprintf+0xbe>
 9c0:	80 33       	cpi	r24, 0x30	; 48
 9c2:	79 f7       	brne	.-34     	; 0x9a2 <vfprintf+0x7c>
 9c4:	68 94       	set
 9c6:	50 f8       	bld	r5, 0
 9c8:	f3 01       	movw	r30, r6
 9ca:	93 fd       	sbrc	r25, 3
 9cc:	85 91       	lpm	r24, Z+
 9ce:	93 ff       	sbrs	r25, 3
 9d0:	81 91       	ld	r24, Z+
 9d2:	3f 01       	movw	r6, r30
 9d4:	81 11       	cpse	r24, r1
 9d6:	db cf       	rjmp	.-74     	; 0x98e <vfprintf+0x68>
 9d8:	20 c0       	rjmp	.+64     	; 0xa1a <vfprintf+0xf4>
 9da:	68 94       	set
 9dc:	51 f8       	bld	r5, 1
 9de:	68 94       	set
 9e0:	52 f8       	bld	r5, 2
 9e2:	f2 cf       	rjmp	.-28     	; 0x9c8 <vfprintf+0xa2>
 9e4:	68 94       	set
 9e6:	53 f8       	bld	r5, 3
 9e8:	ef cf       	rjmp	.-34     	; 0x9c8 <vfprintf+0xa2>
 9ea:	68 94       	set
 9ec:	54 f8       	bld	r5, 4
 9ee:	ec cf       	rjmp	.-40     	; 0x9c8 <vfprintf+0xa2>
 9f0:	42 9c       	mul	r4, r2
 9f2:	20 0d       	add	r18, r0
 9f4:	11 24       	eor	r1, r1
 9f6:	42 2e       	mov	r4, r18
 9f8:	68 94       	set
 9fa:	55 f8       	bld	r5, 5
 9fc:	e5 cf       	rjmp	.-54     	; 0x9c8 <vfprintf+0xa2>
 9fe:	8e 32       	cpi	r24, 0x2E	; 46
 a00:	29 f4       	brne	.+10     	; 0xa0c <vfprintf+0xe6>
 a02:	56 fc       	sbrc	r5, 6
 a04:	f7 c0       	rjmp	.+494    	; 0xbf4 <vfprintf+0x2ce>
 a06:	68 94       	set
 a08:	56 f8       	bld	r5, 6
 a0a:	de cf       	rjmp	.-68     	; 0x9c8 <vfprintf+0xa2>
 a0c:	8c 36       	cpi	r24, 0x6C	; 108
 a0e:	19 f4       	brne	.+6      	; 0xa16 <vfprintf+0xf0>
 a10:	68 94       	set
 a12:	57 f8       	bld	r5, 7
 a14:	d9 cf       	rjmp	.-78     	; 0x9c8 <vfprintf+0xa2>
 a16:	88 36       	cpi	r24, 0x68	; 104
 a18:	b9 f2       	breq	.-82     	; 0x9c8 <vfprintf+0xa2>
 a1a:	98 2f       	mov	r25, r24
 a1c:	9f 7d       	andi	r25, 0xDF	; 223
 a1e:	95 54       	subi	r25, 0x45	; 69
 a20:	93 30       	cpi	r25, 0x03	; 3
 a22:	c0 f0       	brcs	.+48     	; 0xa54 <vfprintf+0x12e>
 a24:	83 36       	cpi	r24, 0x63	; 99
 a26:	81 f1       	breq	.+96     	; 0xa88 <vfprintf+0x162>
 a28:	83 37       	cpi	r24, 0x73	; 115
 a2a:	a1 f1       	breq	.+104    	; 0xa94 <vfprintf+0x16e>
 a2c:	83 35       	cpi	r24, 0x53	; 83
 a2e:	09 f0       	breq	.+2      	; 0xa32 <vfprintf+0x10c>
 a30:	5b c0       	rjmp	.+182    	; 0xae8 <vfprintf+0x1c2>
 a32:	d8 01       	movw	r26, r16
 a34:	cd 90       	ld	r12, X+
 a36:	dd 90       	ld	r13, X+
 a38:	8d 01       	movw	r16, r26
 a3a:	6b 2d       	mov	r22, r11
 a3c:	70 e0       	ldi	r23, 0x00	; 0
 a3e:	56 fc       	sbrc	r5, 6
 a40:	02 c0       	rjmp	.+4      	; 0xa46 <vfprintf+0x120>
 a42:	6f ef       	ldi	r22, 0xFF	; 255
 a44:	7f ef       	ldi	r23, 0xFF	; 255
 a46:	c6 01       	movw	r24, r12
 a48:	0e 94 66 06 	call	0xccc	; 0xccc <strnlen_P>
 a4c:	5c 01       	movw	r10, r24
 a4e:	68 94       	set
 a50:	57 f8       	bld	r5, 7
 a52:	0a c0       	rjmp	.+20     	; 0xa68 <vfprintf+0x142>
 a54:	0c 5f       	subi	r16, 0xFC	; 252
 a56:	1f 4f       	sbci	r17, 0xFF	; 255
 a58:	ef e3       	ldi	r30, 0x3F	; 63
 a5a:	e9 83       	std	Y+1, r30	; 0x01
 a5c:	aa 24       	eor	r10, r10
 a5e:	a3 94       	inc	r10
 a60:	b1 2c       	mov	r11, r1
 a62:	64 01       	movw	r12, r8
 a64:	e8 94       	clt
 a66:	57 f8       	bld	r5, 7
 a68:	53 fe       	sbrs	r5, 3
 a6a:	29 c0       	rjmp	.+82     	; 0xabe <vfprintf+0x198>
 a6c:	34 2c       	mov	r3, r4
 a6e:	a1 14       	cp	r10, r1
 a70:	b1 04       	cpc	r11, r1
 a72:	51 f5       	brne	.+84     	; 0xac8 <vfprintf+0x1a2>
 a74:	33 20       	and	r3, r3
 a76:	09 f4       	brne	.+2      	; 0xa7a <vfprintf+0x154>
 a78:	6d cf       	rjmp	.-294    	; 0x954 <vfprintf+0x2e>
 a7a:	b7 01       	movw	r22, r14
 a7c:	80 e2       	ldi	r24, 0x20	; 32
 a7e:	90 e0       	ldi	r25, 0x00	; 0
 a80:	0e 94 7c 06 	call	0xcf8	; 0xcf8 <fputc>
 a84:	3a 94       	dec	r3
 a86:	f6 cf       	rjmp	.-20     	; 0xa74 <vfprintf+0x14e>
 a88:	d8 01       	movw	r26, r16
 a8a:	8c 91       	ld	r24, X
 a8c:	89 83       	std	Y+1, r24	; 0x01
 a8e:	0e 5f       	subi	r16, 0xFE	; 254
 a90:	1f 4f       	sbci	r17, 0xFF	; 255
 a92:	e4 cf       	rjmp	.-56     	; 0xa5c <vfprintf+0x136>
 a94:	f8 01       	movw	r30, r16
 a96:	c1 90       	ld	r12, Z+
 a98:	d1 90       	ld	r13, Z+
 a9a:	8f 01       	movw	r16, r30
 a9c:	6b 2d       	mov	r22, r11
 a9e:	70 e0       	ldi	r23, 0x00	; 0
 aa0:	56 fc       	sbrc	r5, 6
 aa2:	02 c0       	rjmp	.+4      	; 0xaa8 <vfprintf+0x182>
 aa4:	6f ef       	ldi	r22, 0xFF	; 255
 aa6:	7f ef       	ldi	r23, 0xFF	; 255
 aa8:	c6 01       	movw	r24, r12
 aaa:	0e 94 71 06 	call	0xce2	; 0xce2 <strnlen>
 aae:	5c 01       	movw	r10, r24
 ab0:	d9 cf       	rjmp	.-78     	; 0xa64 <vfprintf+0x13e>
 ab2:	b7 01       	movw	r22, r14
 ab4:	80 e2       	ldi	r24, 0x20	; 32
 ab6:	90 e0       	ldi	r25, 0x00	; 0
 ab8:	0e 94 7c 06 	call	0xcf8	; 0xcf8 <fputc>
 abc:	4a 94       	dec	r4
 abe:	4a 14       	cp	r4, r10
 ac0:	1b 04       	cpc	r1, r11
 ac2:	09 f0       	breq	.+2      	; 0xac6 <vfprintf+0x1a0>
 ac4:	b0 f7       	brcc	.-20     	; 0xab2 <vfprintf+0x18c>
 ac6:	d2 cf       	rjmp	.-92     	; 0xa6c <vfprintf+0x146>
 ac8:	f6 01       	movw	r30, r12
 aca:	57 fc       	sbrc	r5, 7
 acc:	85 91       	lpm	r24, Z+
 ace:	57 fe       	sbrs	r5, 7
 ad0:	81 91       	ld	r24, Z+
 ad2:	6f 01       	movw	r12, r30
 ad4:	b7 01       	movw	r22, r14
 ad6:	90 e0       	ldi	r25, 0x00	; 0
 ad8:	0e 94 7c 06 	call	0xcf8	; 0xcf8 <fputc>
 adc:	31 10       	cpse	r3, r1
 ade:	3a 94       	dec	r3
 ae0:	b1 e0       	ldi	r27, 0x01	; 1
 ae2:	ab 1a       	sub	r10, r27
 ae4:	b1 08       	sbc	r11, r1
 ae6:	c3 cf       	rjmp	.-122    	; 0xa6e <vfprintf+0x148>
 ae8:	84 36       	cpi	r24, 0x64	; 100
 aea:	19 f0       	breq	.+6      	; 0xaf2 <vfprintf+0x1cc>
 aec:	89 36       	cpi	r24, 0x69	; 105
 aee:	09 f0       	breq	.+2      	; 0xaf2 <vfprintf+0x1cc>
 af0:	71 c0       	rjmp	.+226    	; 0xbd4 <vfprintf+0x2ae>
 af2:	f8 01       	movw	r30, r16
 af4:	57 fe       	sbrs	r5, 7
 af6:	67 c0       	rjmp	.+206    	; 0xbc6 <vfprintf+0x2a0>
 af8:	61 91       	ld	r22, Z+
 afa:	71 91       	ld	r23, Z+
 afc:	81 91       	ld	r24, Z+
 afe:	91 91       	ld	r25, Z+
 b00:	8f 01       	movw	r16, r30
 b02:	e5 2d       	mov	r30, r5
 b04:	ef 76       	andi	r30, 0x6F	; 111
 b06:	de 2e       	mov	r13, r30
 b08:	97 ff       	sbrs	r25, 7
 b0a:	09 c0       	rjmp	.+18     	; 0xb1e <vfprintf+0x1f8>
 b0c:	90 95       	com	r25
 b0e:	80 95       	com	r24
 b10:	70 95       	com	r23
 b12:	61 95       	neg	r22
 b14:	7f 4f       	sbci	r23, 0xFF	; 255
 b16:	8f 4f       	sbci	r24, 0xFF	; 255
 b18:	9f 4f       	sbci	r25, 0xFF	; 255
 b1a:	68 94       	set
 b1c:	d7 f8       	bld	r13, 7
 b1e:	2a e0       	ldi	r18, 0x0A	; 10
 b20:	30 e0       	ldi	r19, 0x00	; 0
 b22:	a4 01       	movw	r20, r8
 b24:	0e 94 ac 06 	call	0xd58	; 0xd58 <__ultoa_invert>
 b28:	c8 2e       	mov	r12, r24
 b2a:	c8 18       	sub	r12, r8
 b2c:	ac 2c       	mov	r10, r12
 b2e:	5d 2c       	mov	r5, r13
 b30:	d6 fe       	sbrs	r13, 6
 b32:	0c c0       	rjmp	.+24     	; 0xb4c <vfprintf+0x226>
 b34:	e8 94       	clt
 b36:	50 f8       	bld	r5, 0
 b38:	cb 14       	cp	r12, r11
 b3a:	40 f4       	brcc	.+16     	; 0xb4c <vfprintf+0x226>
 b3c:	d4 fe       	sbrs	r13, 4
 b3e:	05 c0       	rjmp	.+10     	; 0xb4a <vfprintf+0x224>
 b40:	d2 fc       	sbrc	r13, 2
 b42:	03 c0       	rjmp	.+6      	; 0xb4a <vfprintf+0x224>
 b44:	5d 2d       	mov	r21, r13
 b46:	5e 7e       	andi	r21, 0xEE	; 238
 b48:	55 2e       	mov	r5, r21
 b4a:	ab 2c       	mov	r10, r11
 b4c:	54 fe       	sbrs	r5, 4
 b4e:	93 c0       	rjmp	.+294    	; 0xc76 <vfprintf+0x350>
 b50:	fe 01       	movw	r30, r28
 b52:	ec 0d       	add	r30, r12
 b54:	f1 1d       	adc	r31, r1
 b56:	80 81       	ld	r24, Z
 b58:	80 33       	cpi	r24, 0x30	; 48
 b5a:	09 f0       	breq	.+2      	; 0xb5e <vfprintf+0x238>
 b5c:	85 c0       	rjmp	.+266    	; 0xc68 <vfprintf+0x342>
 b5e:	65 2d       	mov	r22, r5
 b60:	69 7e       	andi	r22, 0xE9	; 233
 b62:	56 2e       	mov	r5, r22
 b64:	75 2d       	mov	r23, r5
 b66:	78 70       	andi	r23, 0x08	; 8
 b68:	37 2e       	mov	r3, r23
 b6a:	53 fc       	sbrc	r5, 3
 b6c:	93 c0       	rjmp	.+294    	; 0xc94 <vfprintf+0x36e>
 b6e:	50 fe       	sbrs	r5, 0
 b70:	8d c0       	rjmp	.+282    	; 0xc8c <vfprintf+0x366>
 b72:	bc 2c       	mov	r11, r12
 b74:	a4 14       	cp	r10, r4
 b76:	10 f4       	brcc	.+4      	; 0xb7c <vfprintf+0x256>
 b78:	b4 0c       	add	r11, r4
 b7a:	ba 18       	sub	r11, r10
 b7c:	54 fe       	sbrs	r5, 4
 b7e:	90 c0       	rjmp	.+288    	; 0xca0 <vfprintf+0x37a>
 b80:	b7 01       	movw	r22, r14
 b82:	80 e3       	ldi	r24, 0x30	; 48
 b84:	90 e0       	ldi	r25, 0x00	; 0
 b86:	0e 94 7c 06 	call	0xcf8	; 0xcf8 <fputc>
 b8a:	52 fe       	sbrs	r5, 2
 b8c:	07 c0       	rjmp	.+14     	; 0xb9c <vfprintf+0x276>
 b8e:	88 e7       	ldi	r24, 0x78	; 120
 b90:	51 fc       	sbrc	r5, 1
 b92:	88 e5       	ldi	r24, 0x58	; 88
 b94:	90 e0       	ldi	r25, 0x00	; 0
 b96:	b7 01       	movw	r22, r14
 b98:	0e 94 7c 06 	call	0xcf8	; 0xcf8 <fputc>
 b9c:	cb 14       	cp	r12, r11
 b9e:	08 f4       	brcc	.+2      	; 0xba2 <vfprintf+0x27c>
 ba0:	8b c0       	rjmp	.+278    	; 0xcb8 <vfprintf+0x392>
 ba2:	ca 94       	dec	r12
 ba4:	d1 2c       	mov	r13, r1
 ba6:	8f ef       	ldi	r24, 0xFF	; 255
 ba8:	c8 1a       	sub	r12, r24
 baa:	d8 0a       	sbc	r13, r24
 bac:	c8 0c       	add	r12, r8
 bae:	d9 1c       	adc	r13, r9
 bb0:	d6 01       	movw	r26, r12
 bb2:	8e 91       	ld	r24, -X
 bb4:	6d 01       	movw	r12, r26
 bb6:	b7 01       	movw	r22, r14
 bb8:	90 e0       	ldi	r25, 0x00	; 0
 bba:	0e 94 7c 06 	call	0xcf8	; 0xcf8 <fputc>
 bbe:	8c 14       	cp	r8, r12
 bc0:	9d 04       	cpc	r9, r13
 bc2:	b1 f7       	brne	.-20     	; 0xbb0 <vfprintf+0x28a>
 bc4:	57 cf       	rjmp	.-338    	; 0xa74 <vfprintf+0x14e>
 bc6:	61 91       	ld	r22, Z+
 bc8:	71 91       	ld	r23, Z+
 bca:	07 2e       	mov	r0, r23
 bcc:	00 0c       	add	r0, r0
 bce:	88 0b       	sbc	r24, r24
 bd0:	99 0b       	sbc	r25, r25
 bd2:	96 cf       	rjmp	.-212    	; 0xb00 <vfprintf+0x1da>
 bd4:	d5 2c       	mov	r13, r5
 bd6:	e8 94       	clt
 bd8:	d4 f8       	bld	r13, 4
 bda:	2a e0       	ldi	r18, 0x0A	; 10
 bdc:	85 37       	cpi	r24, 0x75	; 117
 bde:	29 f1       	breq	.+74     	; 0xc2a <vfprintf+0x304>
 be0:	f5 2d       	mov	r31, r5
 be2:	f9 7f       	andi	r31, 0xF9	; 249
 be4:	df 2e       	mov	r13, r31
 be6:	80 37       	cpi	r24, 0x70	; 112
 be8:	a1 f0       	breq	.+40     	; 0xc12 <vfprintf+0x2ec>
 bea:	58 f4       	brcc	.+22     	; 0xc02 <vfprintf+0x2dc>
 bec:	88 35       	cpi	r24, 0x58	; 88
 bee:	a1 f0       	breq	.+40     	; 0xc18 <vfprintf+0x2f2>
 bf0:	8f 36       	cpi	r24, 0x6F	; 111
 bf2:	d1 f0       	breq	.+52     	; 0xc28 <vfprintf+0x302>
 bf4:	f7 01       	movw	r30, r14
 bf6:	86 81       	ldd	r24, Z+6	; 0x06
 bf8:	97 81       	ldd	r25, Z+7	; 0x07
 bfa:	2f 96       	adiw	r28, 0x0f	; 15
 bfc:	e2 e1       	ldi	r30, 0x12	; 18
 bfe:	0c 94 26 07 	jmp	0xe4c	; 0xe4c <__epilogue_restores__>
 c02:	88 37       	cpi	r24, 0x78	; 120
 c04:	b9 f7       	brne	.-18     	; 0xbf4 <vfprintf+0x2ce>
 c06:	d4 fe       	sbrs	r13, 4
 c08:	02 c0       	rjmp	.+4      	; 0xc0e <vfprintf+0x2e8>
 c0a:	68 94       	set
 c0c:	d2 f8       	bld	r13, 2
 c0e:	20 e1       	ldi	r18, 0x10	; 16
 c10:	0c c0       	rjmp	.+24     	; 0xc2a <vfprintf+0x304>
 c12:	68 94       	set
 c14:	d4 f8       	bld	r13, 4
 c16:	f7 cf       	rjmp	.-18     	; 0xc06 <vfprintf+0x2e0>
 c18:	54 fe       	sbrs	r5, 4
 c1a:	03 c0       	rjmp	.+6      	; 0xc22 <vfprintf+0x2fc>
 c1c:	2f 2f       	mov	r18, r31
 c1e:	26 60       	ori	r18, 0x06	; 6
 c20:	d2 2e       	mov	r13, r18
 c22:	20 e1       	ldi	r18, 0x10	; 16
 c24:	32 e0       	ldi	r19, 0x02	; 2
 c26:	02 c0       	rjmp	.+4      	; 0xc2c <vfprintf+0x306>
 c28:	28 e0       	ldi	r18, 0x08	; 8
 c2a:	30 e0       	ldi	r19, 0x00	; 0
 c2c:	f8 01       	movw	r30, r16
 c2e:	d7 fe       	sbrs	r13, 7
 c30:	15 c0       	rjmp	.+42     	; 0xc5c <vfprintf+0x336>
 c32:	41 91       	ld	r20, Z+
 c34:	51 91       	ld	r21, Z+
 c36:	61 91       	ld	r22, Z+
 c38:	71 91       	ld	r23, Z+
 c3a:	4c 87       	std	Y+12, r20	; 0x0c
 c3c:	5d 87       	std	Y+13, r21	; 0x0d
 c3e:	6e 87       	std	Y+14, r22	; 0x0e
 c40:	7f 87       	std	Y+15, r23	; 0x0f
 c42:	8f 01       	movw	r16, r30
 c44:	a4 01       	movw	r20, r8
 c46:	6c 85       	ldd	r22, Y+12	; 0x0c
 c48:	7d 85       	ldd	r23, Y+13	; 0x0d
 c4a:	8e 85       	ldd	r24, Y+14	; 0x0e
 c4c:	9f 85       	ldd	r25, Y+15	; 0x0f
 c4e:	0e 94 ac 06 	call	0xd58	; 0xd58 <__ultoa_invert>
 c52:	c8 2e       	mov	r12, r24
 c54:	c8 18       	sub	r12, r8
 c56:	e8 94       	clt
 c58:	d7 f8       	bld	r13, 7
 c5a:	68 cf       	rjmp	.-304    	; 0xb2c <vfprintf+0x206>
 c5c:	81 91       	ld	r24, Z+
 c5e:	91 91       	ld	r25, Z+
 c60:	ac 01       	movw	r20, r24
 c62:	70 e0       	ldi	r23, 0x00	; 0
 c64:	60 e0       	ldi	r22, 0x00	; 0
 c66:	e9 cf       	rjmp	.-46     	; 0xc3a <vfprintf+0x314>
 c68:	52 fc       	sbrc	r5, 2
 c6a:	02 c0       	rjmp	.+4      	; 0xc70 <vfprintf+0x34a>
 c6c:	a3 94       	inc	r10
 c6e:	7a cf       	rjmp	.-268    	; 0xb64 <vfprintf+0x23e>
 c70:	a3 94       	inc	r10
 c72:	a3 94       	inc	r10
 c74:	77 cf       	rjmp	.-274    	; 0xb64 <vfprintf+0x23e>
 c76:	85 2d       	mov	r24, r5
 c78:	86 78       	andi	r24, 0x86	; 134
 c7a:	09 f4       	brne	.+2      	; 0xc7e <vfprintf+0x358>
 c7c:	73 cf       	rjmp	.-282    	; 0xb64 <vfprintf+0x23e>
 c7e:	f6 cf       	rjmp	.-20     	; 0xc6c <vfprintf+0x346>
 c80:	b7 01       	movw	r22, r14
 c82:	80 e2       	ldi	r24, 0x20	; 32
 c84:	90 e0       	ldi	r25, 0x00	; 0
 c86:	0e 94 7c 06 	call	0xcf8	; 0xcf8 <fputc>
 c8a:	a3 94       	inc	r10
 c8c:	a4 14       	cp	r10, r4
 c8e:	c0 f3       	brcs	.-16     	; 0xc80 <vfprintf+0x35a>
 c90:	31 2c       	mov	r3, r1
 c92:	74 cf       	rjmp	.-280    	; 0xb7c <vfprintf+0x256>
 c94:	34 2c       	mov	r3, r4
 c96:	3a 18       	sub	r3, r10
 c98:	a4 14       	cp	r10, r4
 c9a:	08 f4       	brcc	.+2      	; 0xc9e <vfprintf+0x378>
 c9c:	6f cf       	rjmp	.-290    	; 0xb7c <vfprintf+0x256>
 c9e:	f8 cf       	rjmp	.-16     	; 0xc90 <vfprintf+0x36a>
 ca0:	85 2d       	mov	r24, r5
 ca2:	86 78       	andi	r24, 0x86	; 134
 ca4:	09 f4       	brne	.+2      	; 0xca8 <vfprintf+0x382>
 ca6:	7a cf       	rjmp	.-268    	; 0xb9c <vfprintf+0x276>
 ca8:	8b e2       	ldi	r24, 0x2B	; 43
 caa:	51 fe       	sbrs	r5, 1
 cac:	80 e2       	ldi	r24, 0x20	; 32
 cae:	57 fc       	sbrc	r5, 7
 cb0:	8d e2       	ldi	r24, 0x2D	; 45
 cb2:	b7 01       	movw	r22, r14
 cb4:	90 e0       	ldi	r25, 0x00	; 0
 cb6:	70 cf       	rjmp	.-288    	; 0xb98 <vfprintf+0x272>
 cb8:	b7 01       	movw	r22, r14
 cba:	80 e3       	ldi	r24, 0x30	; 48
 cbc:	90 e0       	ldi	r25, 0x00	; 0
 cbe:	0e 94 7c 06 	call	0xcf8	; 0xcf8 <fputc>
 cc2:	ba 94       	dec	r11
 cc4:	6b cf       	rjmp	.-298    	; 0xb9c <vfprintf+0x276>
 cc6:	8f ef       	ldi	r24, 0xFF	; 255
 cc8:	9f ef       	ldi	r25, 0xFF	; 255
 cca:	97 cf       	rjmp	.-210    	; 0xbfa <vfprintf+0x2d4>

00000ccc <strnlen_P>:
 ccc:	fc 01       	movw	r30, r24
 cce:	05 90       	lpm	r0, Z+
 cd0:	61 50       	subi	r22, 0x01	; 1
 cd2:	70 40       	sbci	r23, 0x00	; 0
 cd4:	01 10       	cpse	r0, r1
 cd6:	d8 f7       	brcc	.-10     	; 0xcce <strnlen_P+0x2>
 cd8:	80 95       	com	r24
 cda:	90 95       	com	r25
 cdc:	8e 0f       	add	r24, r30
 cde:	9f 1f       	adc	r25, r31
 ce0:	08 95       	ret

00000ce2 <strnlen>:
 ce2:	fc 01       	movw	r30, r24
 ce4:	61 50       	subi	r22, 0x01	; 1
 ce6:	70 40       	sbci	r23, 0x00	; 0
 ce8:	01 90       	ld	r0, Z+
 cea:	01 10       	cpse	r0, r1
 cec:	d8 f7       	brcc	.-10     	; 0xce4 <strnlen+0x2>
 cee:	80 95       	com	r24
 cf0:	90 95       	com	r25
 cf2:	8e 0f       	add	r24, r30
 cf4:	9f 1f       	adc	r25, r31
 cf6:	08 95       	ret

00000cf8 <fputc>:
 cf8:	0f 93       	push	r16
 cfa:	1f 93       	push	r17
 cfc:	cf 93       	push	r28
 cfe:	df 93       	push	r29
 d00:	18 2f       	mov	r17, r24
 d02:	09 2f       	mov	r16, r25
 d04:	eb 01       	movw	r28, r22
 d06:	8b 81       	ldd	r24, Y+3	; 0x03
 d08:	81 fd       	sbrc	r24, 1
 d0a:	09 c0       	rjmp	.+18     	; 0xd1e <fputc+0x26>
 d0c:	1f ef       	ldi	r17, 0xFF	; 255
 d0e:	0f ef       	ldi	r16, 0xFF	; 255
 d10:	81 2f       	mov	r24, r17
 d12:	90 2f       	mov	r25, r16
 d14:	df 91       	pop	r29
 d16:	cf 91       	pop	r28
 d18:	1f 91       	pop	r17
 d1a:	0f 91       	pop	r16
 d1c:	08 95       	ret
 d1e:	82 ff       	sbrs	r24, 2
 d20:	14 c0       	rjmp	.+40     	; 0xd4a <fputc+0x52>
 d22:	2e 81       	ldd	r18, Y+6	; 0x06
 d24:	3f 81       	ldd	r19, Y+7	; 0x07
 d26:	8c 81       	ldd	r24, Y+4	; 0x04
 d28:	9d 81       	ldd	r25, Y+5	; 0x05
 d2a:	28 17       	cp	r18, r24
 d2c:	39 07       	cpc	r19, r25
 d2e:	3c f4       	brge	.+14     	; 0xd3e <fputc+0x46>
 d30:	e8 81       	ld	r30, Y
 d32:	f9 81       	ldd	r31, Y+1	; 0x01
 d34:	cf 01       	movw	r24, r30
 d36:	01 96       	adiw	r24, 0x01	; 1
 d38:	99 83       	std	Y+1, r25	; 0x01
 d3a:	88 83       	st	Y, r24
 d3c:	10 83       	st	Z, r17
 d3e:	8e 81       	ldd	r24, Y+6	; 0x06
 d40:	9f 81       	ldd	r25, Y+7	; 0x07
 d42:	01 96       	adiw	r24, 0x01	; 1
 d44:	9f 83       	std	Y+7, r25	; 0x07
 d46:	8e 83       	std	Y+6, r24	; 0x06
 d48:	e3 cf       	rjmp	.-58     	; 0xd10 <fputc+0x18>
 d4a:	e8 85       	ldd	r30, Y+8	; 0x08
 d4c:	f9 85       	ldd	r31, Y+9	; 0x09
 d4e:	81 2f       	mov	r24, r17
 d50:	09 95       	icall
 d52:	89 2b       	or	r24, r25
 d54:	a1 f3       	breq	.-24     	; 0xd3e <fputc+0x46>
 d56:	da cf       	rjmp	.-76     	; 0xd0c <fputc+0x14>

00000d58 <__ultoa_invert>:
 d58:	fa 01       	movw	r30, r20
 d5a:	aa 27       	eor	r26, r26
 d5c:	28 30       	cpi	r18, 0x08	; 8
 d5e:	51 f1       	breq	.+84     	; 0xdb4 <.Ldebug_info0+0x40>
 d60:	20 31       	cpi	r18, 0x10	; 16
 d62:	81 f1       	breq	.+96     	; 0xdc4 <.Ldebug_info0+0x50>
 d64:	e8 94       	clt
 d66:	6f 93       	push	r22
 d68:	6e 7f       	andi	r22, 0xFE	; 254
 d6a:	6e 5f       	subi	r22, 0xFE	; 254
 d6c:	7f 4f       	sbci	r23, 0xFF	; 255
 d6e:	8f 4f       	sbci	r24, 0xFF	; 255
 d70:	9f 4f       	sbci	r25, 0xFF	; 255
 d72:	af 4f       	sbci	r26, 0xFF	; 255
 d74:	b1 e0       	ldi	r27, 0x01	; 1
 d76:	3e d0       	rcall	.+124    	; 0xdf4 <.Ldebug_info0+0x80>
 d78:	b4 e0       	ldi	r27, 0x04	; 4
 d7a:	3c d0       	rcall	.+120    	; 0xdf4 <.Ldebug_info0+0x80>
 d7c:	67 0f       	add	r22, r23
 d7e:	78 1f       	adc	r23, r24
 d80:	89 1f       	adc	r24, r25
 d82:	9a 1f       	adc	r25, r26
 d84:	a1 1d       	adc	r26, r1
 d86:	68 0f       	add	r22, r24
 d88:	79 1f       	adc	r23, r25
 d8a:	8a 1f       	adc	r24, r26
 d8c:	91 1d       	adc	r25, r1
 d8e:	a1 1d       	adc	r26, r1
 d90:	6a 0f       	add	r22, r26
 d92:	71 1d       	adc	r23, r1
 d94:	81 1d       	adc	r24, r1
 d96:	91 1d       	adc	r25, r1
 d98:	a1 1d       	adc	r26, r1
 d9a:	20 d0       	rcall	.+64     	; 0xddc <.Ldebug_info0+0x68>
 d9c:	09 f4       	brne	.+2      	; 0xda0 <.Ldebug_info0+0x2c>
 d9e:	68 94       	set
 da0:	3f 91       	pop	r19
 da2:	2a e0       	ldi	r18, 0x0A	; 10
 da4:	26 9f       	mul	r18, r22
 da6:	11 24       	eor	r1, r1
 da8:	30 19       	sub	r19, r0
 daa:	30 5d       	subi	r19, 0xD0	; 208
 dac:	31 93       	st	Z+, r19
 dae:	de f6       	brtc	.-74     	; 0xd66 <__ultoa_invert+0xe>
 db0:	cf 01       	movw	r24, r30
 db2:	08 95       	ret
 db4:	46 2f       	mov	r20, r22
 db6:	47 70       	andi	r20, 0x07	; 7
 db8:	40 5d       	subi	r20, 0xD0	; 208
 dba:	41 93       	st	Z+, r20
 dbc:	b3 e0       	ldi	r27, 0x03	; 3
 dbe:	0f d0       	rcall	.+30     	; 0xdde <.Ldebug_info0+0x6a>
 dc0:	c9 f7       	brne	.-14     	; 0xdb4 <.Ldebug_info0+0x40>
 dc2:	f6 cf       	rjmp	.-20     	; 0xdb0 <.Ldebug_info0+0x3c>
 dc4:	46 2f       	mov	r20, r22
 dc6:	4f 70       	andi	r20, 0x0F	; 15
 dc8:	40 5d       	subi	r20, 0xD0	; 208
 dca:	4a 33       	cpi	r20, 0x3A	; 58
 dcc:	18 f0       	brcs	.+6      	; 0xdd4 <.Ldebug_info0+0x60>
 dce:	49 5d       	subi	r20, 0xD9	; 217
 dd0:	31 fd       	sbrc	r19, 1
 dd2:	40 52       	subi	r20, 0x20	; 32
 dd4:	41 93       	st	Z+, r20
 dd6:	02 d0       	rcall	.+4      	; 0xddc <.Ldebug_info0+0x68>
 dd8:	a9 f7       	brne	.-22     	; 0xdc4 <.Ldebug_info0+0x50>
 dda:	ea cf       	rjmp	.-44     	; 0xdb0 <.Ldebug_info0+0x3c>
 ddc:	b4 e0       	ldi	r27, 0x04	; 4
 dde:	a6 95       	lsr	r26
 de0:	97 95       	ror	r25
 de2:	87 95       	ror	r24
 de4:	77 95       	ror	r23
 de6:	67 95       	ror	r22
 de8:	ba 95       	dec	r27
 dea:	c9 f7       	brne	.-14     	; 0xdde <.Ldebug_info0+0x6a>
 dec:	00 97       	sbiw	r24, 0x00	; 0
 dee:	61 05       	cpc	r22, r1
 df0:	71 05       	cpc	r23, r1
 df2:	08 95       	ret
 df4:	9b 01       	movw	r18, r22
 df6:	ac 01       	movw	r20, r24
 df8:	0a 2e       	mov	r0, r26
 dfa:	06 94       	lsr	r0
 dfc:	57 95       	ror	r21
 dfe:	47 95       	ror	r20
 e00:	37 95       	ror	r19
 e02:	27 95       	ror	r18
 e04:	ba 95       	dec	r27
 e06:	c9 f7       	brne	.-14     	; 0xdfa <.Ldebug_info0+0x86>
 e08:	62 0f       	add	r22, r18
 e0a:	73 1f       	adc	r23, r19
 e0c:	84 1f       	adc	r24, r20
 e0e:	95 1f       	adc	r25, r21
 e10:	a0 1d       	adc	r26, r0
 e12:	08 95       	ret

00000e14 <__prologue_saves__>:
 e14:	2f 92       	push	r2
 e16:	3f 92       	push	r3
 e18:	4f 92       	push	r4
 e1a:	5f 92       	push	r5
 e1c:	6f 92       	push	r6
 e1e:	7f 92       	push	r7
 e20:	8f 92       	push	r8
 e22:	9f 92       	push	r9
 e24:	af 92       	push	r10
 e26:	bf 92       	push	r11
 e28:	cf 92       	push	r12
 e2a:	df 92       	push	r13
 e2c:	ef 92       	push	r14
 e2e:	ff 92       	push	r15
 e30:	0f 93       	push	r16
 e32:	1f 93       	push	r17
 e34:	cf 93       	push	r28
 e36:	df 93       	push	r29
 e38:	cd b7       	in	r28, 0x3d	; 61
 e3a:	de b7       	in	r29, 0x3e	; 62
 e3c:	ca 1b       	sub	r28, r26
 e3e:	db 0b       	sbc	r29, r27
 e40:	0f b6       	in	r0, 0x3f	; 63
 e42:	f8 94       	cli
 e44:	de bf       	out	0x3e, r29	; 62
 e46:	0f be       	out	0x3f, r0	; 63
 e48:	cd bf       	out	0x3d, r28	; 61
 e4a:	09 94       	ijmp

00000e4c <__epilogue_restores__>:
 e4c:	2a 88       	ldd	r2, Y+18	; 0x12
 e4e:	39 88       	ldd	r3, Y+17	; 0x11
 e50:	48 88       	ldd	r4, Y+16	; 0x10
 e52:	5f 84       	ldd	r5, Y+15	; 0x0f
 e54:	6e 84       	ldd	r6, Y+14	; 0x0e
 e56:	7d 84       	ldd	r7, Y+13	; 0x0d
 e58:	8c 84       	ldd	r8, Y+12	; 0x0c
 e5a:	9b 84       	ldd	r9, Y+11	; 0x0b
 e5c:	aa 84       	ldd	r10, Y+10	; 0x0a
 e5e:	b9 84       	ldd	r11, Y+9	; 0x09
 e60:	c8 84       	ldd	r12, Y+8	; 0x08
 e62:	df 80       	ldd	r13, Y+7	; 0x07
 e64:	ee 80       	ldd	r14, Y+6	; 0x06
 e66:	fd 80       	ldd	r15, Y+5	; 0x05
 e68:	0c 81       	ldd	r16, Y+4	; 0x04
 e6a:	1b 81       	ldd	r17, Y+3	; 0x03
 e6c:	aa 81       	ldd	r26, Y+2	; 0x02
 e6e:	b9 81       	ldd	r27, Y+1	; 0x01
 e70:	ce 0f       	add	r28, r30
 e72:	d1 1d       	adc	r29, r1
 e74:	0f b6       	in	r0, 0x3f	; 63
 e76:	f8 94       	cli
 e78:	de bf       	out	0x3e, r29	; 62
 e7a:	0f be       	out	0x3f, r0	; 63
 e7c:	cd bf       	out	0x3d, r28	; 61
 e7e:	ed 01       	movw	r28, r26
 e80:	08 95       	ret

00000e82 <_exit>:
 e82:	f8 94       	cli

00000e84 <__stop_program>:
 e84:	ff cf       	rjmp	.-2      	; 0xe84 <__stop_program>
